ARM GAS  C:\Users\even\AppData\Local\Temp\ccu0RqlP.s 			page 1


   1              		.cpu cortex-a9
   2              		.arch armv7-a
   3              		.fpu neon-fp16
   4              		.arch_extension mp
   5              		.arch_extension sec
   6              		.eabi_attribute 20, 1
   7              		.eabi_attribute 21, 1
   8              		.eabi_attribute 23, 3
   9              		.eabi_attribute 24, 1
  10              		.eabi_attribute 25, 1
  11              		.eabi_attribute 26, 1
  12              		.eabi_attribute 30, 2
  13              		.eabi_attribute 34, 1
  14              		.eabi_attribute 18, 4
  15              		.file	"rme_benchmark.c"
  16              		.text
  17              	.Ltext0:
  18              		.cfi_sections	.debug_frame
  19              		.file 1 "Source/rme_benchmark.c"
  20              		.section	.text.RME_Same_Prc_Thd_Switch_Test_Thd,"ax",%progbits
  21              		.align	2
  22              		.global	RME_Same_Prc_Thd_Switch_Test_Thd
  23              		.syntax unified
  24              		.arm
  26              	RME_Same_Prc_Thd_Switch_Test_Thd:
  27              	.LFB23:
   1:Source/rme_benchmark.c **** /******************************************************************************
   2:Source/rme_benchmark.c **** Filename    : benchmark.c
   3:Source/rme_benchmark.c **** Author      : pry
   4:Source/rme_benchmark.c **** Date        : 04/09/2017
   5:Source/rme_benchmark.c **** Licence     : The Unlicense; see LICENSE for details.
   6:Source/rme_benchmark.c **** Description : The benchmark file for RME.
   7:Source/rme_benchmark.c **** ******************************************************************************/
   8:Source/rme_benchmark.c **** 
   9:Source/rme_benchmark.c **** /* Include *******************************************************************/
  10:Source/rme_benchmark.c **** #include"sys.h"
  11:Source/rme_benchmark.c **** ptr_t Cur_addr;
  12:Source/rme_benchmark.c **** ptr_t start;
  13:Source/rme_benchmark.c **** ptr_t end;
  14:Source/rme_benchmark.c **** /* Need to export error codes, and size of each object, in words! */
  15:Source/rme_benchmark.c **** /* End Include ***************************************************************/
  16:Source/rme_benchmark.c **** 
  17:Source/rme_benchmark.c **** 
  18:Source/rme_benchmark.c **** /* Function:RME_Same_Prc_Thd_Switch_Test_Thd *********************************
  19:Source/rme_benchmark.c **** Description : The thread for testing same-process thread switching performance.
  20:Source/rme_benchmark.c **** Input       : None.
  21:Source/rme_benchmark.c **** Output      : None.
  22:Source/rme_benchmark.c **** Return      : None.
  23:Source/rme_benchmark.c **** ******************************************************************************/
  24:Source/rme_benchmark.c **** void RME_Same_Prc_Thd_Switch_Test_Thd(ptr_t Param1)
  25:Source/rme_benchmark.c **** {
  28              		.loc 1 25 1 view -0
  29              		.cfi_startproc
  30              		@ args = 0, pretend = 0, frame = 0
  31              		@ frame_needed = 0, uses_anonymous_args = 0
  32              	.LVL0:
  33              		.loc 1 25 1 is_stmt 0 view .LVU1
ARM GAS  C:\Users\even\AppData\Local\Temp\ccu0RqlP.s 			page 2


  34 0000 10402DE9 		push	{r4, lr}
  35              		.cfi_def_cfa_offset 8
  36              		.cfi_offset 4, -8
  37              		.cfi_offset 14, -4
  38              	.LVL1:
  39              	.L2:
  26:Source/rme_benchmark.c ****     ret_t Retval;
  40              		.loc 1 26 5 is_stmt 1 view .LVU2
  27:Source/rme_benchmark.c **** 
  28:Source/rme_benchmark.c **** 
  29:Source/rme_benchmark.c ****     /* Now we switch back to the init thread, immediately */
  30:Source/rme_benchmark.c ****     while(1)
  41              		.loc 1 30 5 view .LVU3
  31:Source/rme_benchmark.c ****     {
  32:Source/rme_benchmark.c ****         /*Retval=RME_CAP_OP(RME_SVC_THD_SWT,0,
  33:Source/rme_benchmark.c ****                           RME_BOOT_INIT_THD,
  34:Source/rme_benchmark.c ****                           0,
  35:Source/rme_benchmark.c ****                           0);*/
  36:Source/rme_benchmark.c ****     	/*USR_DBG_S("\r\n hello! this is thread ");
  37:Source/rme_benchmark.c ****     	    USR_DBG_I(Param1);*/
  38:Source/rme_benchmark.c ****         Retval=RME_Thd_Swt(RME_BOOT_INIT_THD,0);
  42              		.loc 1 38 9 discriminator 1 view .LVU4
  43              	.LBB299:
  44              	.LBI299:
  45              		.file 2 "Include/sys.h"
   1:Include/sys.h **** #include"benchmark.h"
   2:Include/sys.h **** /* Function:RME_Thd_Crt *******************************************************
   3:Include/sys.h **** Description : Create a thread. A thread is the minimal kernel-level execution
   4:Include/sys.h ****               unit.
   5:Include/sys.h **** Input       : RME_cid_t Cap_Cpt - The capability to the capability table.
   6:Include/sys.h ****                                   2-Level.
   7:Include/sys.h ****               RME_cid_t Cap_Kom - The kernel memory capability.
   8:Include/sys.h ****                                   2-Level.
   9:Include/sys.h ****               RME_cid_t Cap_Thd - The capability slot that you want this newly
  10:Include/sys.h ****                                   created thread capability to be in.
  11:Include/sys.h ****                                   1-Level.
  12:Include/sys.h ****               RME_cid_t Cap_Prc - The capability to the process that it is in.
  13:Include/sys.h ****                                   2-Level.
  14:Include/sys.h ****               RME_ptr_t Prio_Max - The maximum priority allowed for this
  15:Include/sys.h ****                                    thread. Once set, this cannot be changed.
  16:Include/sys.h ****               RME_ptr_t Raddr - The relative virtual address to store the
  17:Include/sys.h ****                                 thread kernel object.
  18:Include/sys.h ****               RME_ptr_t Attr - The context attributes.
  19:Include/sys.h **** Output      : None.
  20:Include/sys.h **** Return      : RME_ret_t - If successful, the Thread ID; or an error code.
  21:Include/sys.h **** ******************************************************************************/
  22:Include/sys.h **** ret_t RME_Thd_Crt(cid_t Cap_Cpt,
  23:Include/sys.h ****                       cid_t Cap_Kom,
  24:Include/sys.h ****                       cid_t Cap_Thd,
  25:Include/sys.h ****                       cid_t Cap_Prc,
  26:Include/sys.h ****                       ptr_t Prio_Max,
  27:Include/sys.h ****                       ptr_t Raddr,
  28:Include/sys.h ****                       ptr_t Attr)
  29:Include/sys.h **** {
  30:Include/sys.h ****     return RME_SVC(RME_THD_SVC(Attr,0U,RME_SVC_THD_CRT),
  31:Include/sys.h ****                    Cap_Cpt,
  32:Include/sys.h ****                    RME_PARAM_D1(Cap_Kom)|RME_PARAM_D0(Cap_Thd),
ARM GAS  C:\Users\even\AppData\Local\Temp\ccu0RqlP.s 			page 3


  33:Include/sys.h ****                    RME_PARAM_D1(Cap_Prc)|RME_PARAM_D0(Prio_Max),
  34:Include/sys.h ****                    Raddr);
  35:Include/sys.h **** }
  36:Include/sys.h **** /* End Function:RME_Thd_Crt **************************************************/
  37:Include/sys.h **** 
  38:Include/sys.h **** /* Function:RME_Thd_Exec_Set **************************************************
  39:Include/sys.h **** Description : Set a thread's entry point and stack. The registers will be
  40:Include/sys.h ****               initialized with these contents.
  41:Include/sys.h **** Input       : RME_cid_t Cap_Thd - The capability to the thread.
  42:Include/sys.h ****                                   2-Level.
  43:Include/sys.h ****               void* Entry - The entry address of the thread.
  44:Include/sys.h ****               void* Stack - The stack address to use for execution.
  45:Include/sys.h ****               void* Param - The parameter to pass to the thread.
  46:Include/sys.h **** Output      : None.
  47:Include/sys.h **** Return      : RME_ret_t - If successful, 0; or an error code.
  48:Include/sys.h **** ******************************************************************************/
  49:Include/sys.h **** ret_t RME_Thd_Exec_Set(cid_t Cap_Thd,
  50:Include/sys.h ****                            ptr_t Entry,
  51:Include/sys.h ****                            ptr_t Stack,
  52:Include/sys.h ****                            ptr_t Param)
  53:Include/sys.h **** {
  54:Include/sys.h ****     return RME_SVC(RME_SVC_THD_EXEC_SET,
  55:Include/sys.h ****                    Cap_Thd,
  56:Include/sys.h ****                    (ptr_t)Entry,
  57:Include/sys.h ****                    (ptr_t)Stack,
  58:Include/sys.h ****                    (ptr_t)Param);
  59:Include/sys.h **** }
  60:Include/sys.h **** /* End Function:RME_Thd_Exec_Set *********************************************/
  61:Include/sys.h **** 
  62:Include/sys.h **** /* Function:RME_Thd_Time_Xfer *************************************************
  63:Include/sys.h **** Description : Transfer time from one thread to another. This can only be called
  64:Include/sys.h ****               from the core that the thread is on, and the the two threads
  65:Include/sys.h ****               involved in the time transfer must be on the same core.
  66:Include/sys.h ****               If the time transfered is more than or equal to what the source
  67:Include/sys.h ****               have, the source will be out of time or blocked. If the source is
  68:Include/sys.h ****               both out of time and blocked, we do not send the notification;
  69:Include/sys.h ****               Instead, we send the notification when the receive endpoint
  70:Include/sys.h ****               actually receive something.
  71:Include/sys.h ****               It is possible to transfer time to threads have a lower priority,
  72:Include/sys.h ****               and it is also possible to transfer time to threads that have a
  73:Include/sys.h ****               higher priority. In the latter case, and if the source is
  74:Include/sys.h ****               currently running, a preemption will occur.
  75:Include/sys.h **** Input       : RME_cid_t Cap_Thd_Dst - The destination thread.
  76:Include/sys.h ****                                       2-Level.
  77:Include/sys.h ****               RME_cid_t Cap_Thd_Src - The source thread.
  78:Include/sys.h ****                                       2-Level.
  79:Include/sys.h ****               RME_ptr_t Time - The time to transfer, in slices. A slice is the
  80:Include/sys.h ****                                minimal amount of time transfered in the system
  81:Include/sys.h ****                                usually on the order of 100us or 1ms.
  82:Include/sys.h ****                                Use RME_THD_INIT_TIME for revoking transfer.
  83:Include/sys.h ****                                Use RME_THD_INF_TIME for infinite trasnfer.
  84:Include/sys.h **** Output      : None.
  85:Include/sys.h **** Return      : RME_ret_t - If successful, the destination time amount; or an
  86:Include/sys.h ****                           error code.
  87:Include/sys.h **** ******************************************************************************/
  88:Include/sys.h **** ret_t RME_Thd_Time_Xfer(cid_t Cap_Thd_Dst,
  89:Include/sys.h ****                         cid_t Cap_Thd_Src,
ARM GAS  C:\Users\even\AppData\Local\Temp\ccu0RqlP.s 			page 4


  90:Include/sys.h ****                         ptr_t Time)
  91:Include/sys.h **** {
  92:Include/sys.h ****     return RME_SVC(RME_SVC_THD_TIME_XFER,
  93:Include/sys.h ****                    0U,
  94:Include/sys.h ****                    Cap_Thd_Dst,
  95:Include/sys.h ****                    Cap_Thd_Src,
  96:Include/sys.h ****                    Time);
  97:Include/sys.h **** }
  98:Include/sys.h **** /* End Function:RME_Thd_Time_Xfer ********************************************/
  99:Include/sys.h **** 
 100:Include/sys.h **** 
 101:Include/sys.h **** /* Function:RME_Thd_Sched_Bind ************************************************
 102:Include/sys.h **** Description : Set a thread's priority level, and its scheduler thread. When
 103:Include/sys.h ****               there are any state changes on this thread, a notification will
 104:Include/sys.h ****               be sent to its scheduler thread. If the state of the thread
 105:Include/sys.h ****               changes for multiple times, then only the most recent state will
 106:Include/sys.h ****               be reflected in the scheduler's receive queue.
 107:Include/sys.h ****               The scheduler and the threads that it schedule must be on the
 108:Include/sys.h ****               same core. When a thread wants to go from one core to another,
 109:Include/sys.h ****               its notification to the scheduler must all be processed, and it
 110:Include/sys.h ****               must have no scheduler notifications in itself.
 111:Include/sys.h ****               This must be called on the same core with the Cap_Thd_Sched, and
 112:Include/sys.h ****               the Cap_Thd itself must be free.
 113:Include/sys.h ****               It is impossible to set a thread's priority beyond its maximum
 114:Include/sys.h ****               priority.
 115:Include/sys.h **** Input       : RME_cid_t Cap_Thd - The capability to the thread.
 116:Include/sys.h ****                                   2-Level.
 117:Include/sys.h ****               RME_cid_t Cap_Thd_Sched - The scheduler thread.
 118:Include/sys.h ****                                         2-Level.
 119:Include/sys.h ****               RME_cid_t Cap_Sig - The signal endpoint for scheduler
 120:Include/sys.h ****                                   notifications. This signal endpoint will be
 121:Include/sys.h ****                                   sent to whenever this thread has a fault, or
 122:Include/sys.h ****                                   timeouts. This is purely optional; if it is
 123:Include/sys.h ****                                   not needed, pass in RME_CID_NULL.
 124:Include/sys.h ****               RME_tid_t TID - The thread ID. This is user-supplied, and the
 125:Include/sys.h ****                               kernel will not check whether there are two
 126:Include/sys.h ****                               threads that have the same TID.
 127:Include/sys.h ****               RME_ptr_t Prio - The priority level, higher is more critical.
 128:Include/sys.h ****               ptr_t Haddr - The kernel-accessible virtual memory address
 129:Include/sys.h ****                                 for this thread's register sets, only used by
 130:Include/sys.h ****                                 hypervisor-managed threads. For other threads,
 131:Include/sys.h ****                                 please pass in NULL instead.
 132:Include/sys.h **** 
 133:Include/sys.h **** Output      : None.
 134:Include/sys.h **** Return      : RME_ret_t - If successful, 0; or an error code.
 135:Include/sys.h **** ******************************************************************************/
 136:Include/sys.h **** ret_t RME_Thd_Sched_Bind(cid_t Cap_Thd,
 137:Include/sys.h ****                          cid_t Cap_Thd_Sched,
 138:Include/sys.h ****                          cid_t Cap_Sig,
 139:Include/sys.h ****                          tid_t TID,
 140:Include/sys.h ****                          ptr_t Prio,
 141:Include/sys.h ****                          ptr_t Haddr)
 142:Include/sys.h **** {
 143:Include/sys.h ****     return RME_SVC(RME_SVC_THD_SCHED_BIND,
 144:Include/sys.h ****                    Cap_Thd,
 145:Include/sys.h ****                    RME_PARAM_D1(Cap_Thd_Sched)|RME_PARAM_D0(Cap_Sig),
 146:Include/sys.h ****                    RME_PARAM_D1(TID)|RME_PARAM_D0(Prio),
ARM GAS  C:\Users\even\AppData\Local\Temp\ccu0RqlP.s 			page 5


 147:Include/sys.h ****                    Haddr);
 148:Include/sys.h **** }
 149:Include/sys.h **** /* End Function:RME_Thd_Sched_Bind *******************************************/
 150:Include/sys.h **** 
 151:Include/sys.h **** 
 152:Include/sys.h **** /* Function:RME_Thd_Swt *******************************************************
 153:Include/sys.h **** Description : Switch to another thread. The thread to switch to must have the
 154:Include/sys.h ****               same preemptive priority as this thread, and have time, and not
 155:Include/sys.h ****               blocked.
 156:Include/sys.h **** Input       : RME_cid_t Cap_Thd - The capability to the thread. If this is -1,
 157:Include/sys.h ****                                   the kernel will pickup whatever thread that
 158:Include/sys.h ****                                   has the highest priority and time to run.
 159:Include/sys.h ****                                   2-Level.
 160:Include/sys.h ****               RME_ptr_t Is_Yield - This is a flag to indicate whether this
 161:Include/sys.h ****                                    is a full yield. If it is, the kernel will
 162:Include/sys.h ****                                    discard all the time alloted on this
 163:Include/sys.h ****                                    thread.
 164:Include/sys.h **** Output      : None.
 165:Include/sys.h **** Return      : RME_ret_t - If successful, 0; or an error code.
 166:Include/sys.h **** ******************************************************************************/
 167:Include/sys.h **** ret_t RME_Thd_Swt(cid_t Cap_Thd,
  46              		.loc 2 167 7 view .LVU5
  47              	.LBB300:
 168:Include/sys.h ****                   ptr_t Is_Yield)
 169:Include/sys.h **** {
 170:Include/sys.h ****     return RME_SVC(RME_SVC_THD_SWT,
  48              		.loc 2 170 5 view .LVU6
  49              		.loc 2 170 12 is_stmt 0 view .LVU7
  50 0004 0030A0E3 		mov	r3, #0
  51 0008 0310A0E3 		mov	r1, #3
  52 000c 0320A0E1 		mov	r2, r3
  53 0010 0908A0E3 		mov	r0, #589824
  54 0014 FEFFFFEB 		bl	RME_Svc
  55              	.LVL2:
 171:Include/sys.h ****                    0U,
 172:Include/sys.h ****                    Cap_Thd,
 173:Include/sys.h ****                    Is_Yield,
 174:Include/sys.h ****                    0U);
  56              		.loc 2 174 23 is_stmt 1 view .LVU8
  57              		.loc 2 174 23 is_stmt 0 view .LVU9
  58              	.LBE300:
  59              	.LBE299:
  30:Source/rme_benchmark.c ****     {
  60              		.loc 1 30 10 is_stmt 1 view .LVU10
  61 0018 F9FFFFEA 		b	.L2
  62              		.cfi_endproc
  63              	.LFE23:
  65              		.section	.text.RME_Diff_Prc_Thd_Switch_Test_Thd,"ax",%progbits
  66              		.align	2
  67              		.global	RME_Diff_Prc_Thd_Switch_Test_Thd
  68              		.syntax unified
  69              		.arm
  71              	RME_Diff_Prc_Thd_Switch_Test_Thd:
  72              	.LFB42:
  73              		.cfi_startproc
  39:Source/rme_benchmark.c ****     }
  40:Source/rme_benchmark.c **** }
ARM GAS  C:\Users\even\AppData\Local\Temp\ccu0RqlP.s 			page 6


  41:Source/rme_benchmark.c **** /* End Function:RME_Same_Prc_Thd_Switch_Test_Thd ****************************/
  42:Source/rme_benchmark.c **** /* Function:RME_Diff_Prc_Thd_Switch_Test_Thd *********************************
  43:Source/rme_benchmark.c **** Description : The thread for testing same-process thread switching performance.
  44:Source/rme_benchmark.c **** Input       : None.
  45:Source/rme_benchmark.c **** Output      : None.
  46:Source/rme_benchmark.c **** Return      : None.
  47:Source/rme_benchmark.c **** ******************************************************************************/
  48:Source/rme_benchmark.c **** void RME_Diff_Prc_Thd_Switch_Test_Thd(ptr_t Param1)
  74              		.loc 1 48 6 view -0
  75              		@ Volatile: function does not return.
  76              		@ args = 0, pretend = 0, frame = 0
  77              		@ frame_needed = 0, uses_anonymous_args = 0
  78 0000 10402DE9 		push	{r4, lr}
  79              		.cfi_def_cfa_offset 8
  80              		.cfi_offset 4, -8
  81              		.cfi_offset 14, -4
  82 0004 FEFFFFEB 		bl	RME_Same_Prc_Thd_Switch_Test_Thd
  83              		.cfi_endproc
  84              	.LFE42:
  86              		.section	.rodata.RME_Same_Prc_Thd_Sig_Test_Thd_send.str1.4,"aMS",%progbits,1
  87              		.align	2
  88              	.LC0:
  89 0000 0D0A456E 		.ascii	"\015\012Entering send thread!\000"
  89      74657269 
  89      6E672073 
  89      656E6420 
  89      74687265 
  90              		.align	2
  91              	.LC1:
  92 0018 0D0A5365 		.ascii	"\015\012Send!\000"
  92      6E642100 
  93              		.section	.text.RME_Same_Prc_Thd_Sig_Test_Thd_send,"ax",%progbits
  94              		.align	2
  95              		.global	RME_Same_Prc_Thd_Sig_Test_Thd_send
  96              		.syntax unified
  97              		.arm
  99              	RME_Same_Prc_Thd_Sig_Test_Thd_send:
 100              	.LFB26:
  49:Source/rme_benchmark.c **** {
  50:Source/rme_benchmark.c ****     ret_t Retval;
  51:Source/rme_benchmark.c ****     /* Now we switch back to the init thread, immediately */
  52:Source/rme_benchmark.c ****     while(1)
  53:Source/rme_benchmark.c ****     {
  54:Source/rme_benchmark.c ****         /*Retval=RME_CAP_OP(RME_SVC_THD_SWT,0,
  55:Source/rme_benchmark.c ****                           RME_BOOT_INIT_THD,
  56:Source/rme_benchmark.c ****                           0,
  57:Source/rme_benchmark.c ****                           0);*/
  58:Source/rme_benchmark.c ****         Retval=RME_Thd_Swt(RME_BOOT_INIT_THD,0);
  59:Source/rme_benchmark.c ****     }
  60:Source/rme_benchmark.c **** }
  61:Source/rme_benchmark.c **** /* End Function:RME_Diff_Prc_Thd_Switch_Test_Thd ****************************/
  62:Source/rme_benchmark.c **** 
  63:Source/rme_benchmark.c **** 
  64:Source/rme_benchmark.c **** 
  65:Source/rme_benchmark.c **** void RME_Thd_Create(cid_t Cap_Prc,cid_t Cap_Thd,ptr_t Tid,ptr_t Prio,ptr_t Entry,ptr_t Raddr,cid_t 
  66:Source/rme_benchmark.c **** {
  67:Source/rme_benchmark.c **** 	ret_t Retval;
ARM GAS  C:\Users\even\AppData\Local\Temp\ccu0RqlP.s 			page 7


  68:Source/rme_benchmark.c **** 	cnt_t Count;
  69:Source/rme_benchmark.c **** 	ptr_t Stack_Addr;
  70:Source/rme_benchmark.c **** 	ptr_t Temp;
  71:Source/rme_benchmark.c **** 	/*USR_DBG_S("\r\n-----create a thread , TID= ");
  72:Source/rme_benchmark.c **** 	USR_DBG_H(Tid);*/
  73:Source/rme_benchmark.c **** 	/* Initialize the thread's stack before entering it */
  74:Source/rme_benchmark.c **** 	Stack_Addr=(ptr_t)Stack;
  75:Source/rme_benchmark.c **** 
  76:Source/rme_benchmark.c **** 	/* create a thread */
  77:Source/rme_benchmark.c **** 	Retval=RME_Thd_Crt(RME_BOOT_INIT_CPT,RME_BOOT_INIT_KOM,Cap_Thd,
  78:Source/rme_benchmark.c **** 					   Cap_Prc,RME_THD_PRIO_MAX,Raddr,0);
  79:Source/rme_benchmark.c **** 	/*USR_DBG_S("\r\ncreate a thread      retval= ");
  80:Source/rme_benchmark.c **** 	USR_DBG_I(Retval);*/
  81:Source/rme_benchmark.c **** 
  82:Source/rme_benchmark.c **** 	/* Bind the thread to the processor */
  83:Source/rme_benchmark.c **** 	Retval=RME_Thd_Sched_Bind(Cap_Thd,RME_BOOT_INIT_THD,Cap_Sig,
  84:Source/rme_benchmark.c **** 							  Tid,Prio,RME_BOOT_HYPER_KOM_VADDR);
  85:Source/rme_benchmark.c **** 	/*USR_DBG_S("\r\nBind the thread to the processor retval= ");
  86:Source/rme_benchmark.c **** 	USR_DBG_I(Retval);*/
  87:Source/rme_benchmark.c **** 	/* Set the execution information */
  88:Source/rme_benchmark.c **** 
  89:Source/rme_benchmark.c **** 	Retval=RME_Thd_Exec_Set(Cap_Thd,Entry,Stack_Addr,Tid);
  90:Source/rme_benchmark.c **** 	//RME_Stack[2000]=1234;
  91:Source/rme_benchmark.c **** 	/*USR_DBG_S("\r\nSet the execution information retval= ");
  92:Source/rme_benchmark.c **** 	USR_DBG_I(Retval);
  93:Source/rme_benchmark.c **** 	USR_DBG_S("\r\n");*/
  94:Source/rme_benchmark.c **** 	/* Delegate some timeslice to it */
  95:Source/rme_benchmark.c **** 	Retval=RME_Thd_Time_Xfer(Cap_Thd,RME_BOOT_INIT_THD,Time);
  96:Source/rme_benchmark.c **** 	/*USR_DBG_S("\r\nDelegate some timeslice to it retval= ");
  97:Source/rme_benchmark.c **** 	USR_DBG_I(Retval);*/
  98:Source/rme_benchmark.c **** }
  99:Source/rme_benchmark.c **** 
 100:Source/rme_benchmark.c **** void RME_Same_Prc_Thd_Sig_Test_Thd_send(void) //low prio 4
 101:Source/rme_benchmark.c **** {
 101              		.loc 1 101 1 view -0
 102              		.cfi_startproc
 103              		@ Volatile: function does not return.
 104              		@ args = 0, pretend = 0, frame = 0
 105              		@ frame_needed = 0, uses_anonymous_args = 0
 102:Source/rme_benchmark.c **** 	USR_DBG_S("\r\nEntering send thread!");
 106              		.loc 1 102 2 view .LVU13
 107              	.LVL3:
 108              	.LBB301:
 109              	.LBI301:
 110              		.file 3 "Include/benchmark.h"
   1:Include/benchmark.h **** 
   2:Include/benchmark.h **** #include"rme.h"
   3:Include/benchmark.h **** /* Word size */
   4:Include/benchmark.h **** #define RME_WORD_BIT                                RME_POW2(RME_WORD_ORDER)
   5:Include/benchmark.h **** #define RME_WORD_BYTE                               (RME_WORD_BIT>>3)
   6:Include/benchmark.h **** #define RME_WORD_BIT_O1                             (RME_WORD_BYTE)
   7:Include/benchmark.h **** #define RME_WORD_BIT_O2                             (RME_WORD_BYTE*2U)
   8:Include/benchmark.h **** #define RME_WORD_BIT_O3                             (RME_WORD_BYTE*3U)
   9:Include/benchmark.h **** #define RME_WORD_BIT_O4                             (RME_WORD_BYTE*4U)
  10:Include/benchmark.h **** #define RME_WORD_BIT_O5                             (RME_WORD_BYTE*5U)
  11:Include/benchmark.h **** #define RME_WORD_BIT_O6                             (RME_WORD_BYTE*6U)
  12:Include/benchmark.h **** #define RME_WORD_BIT_O7                             (RME_WORD_BYTE*7U)
ARM GAS  C:\Users\even\AppData\Local\Temp\ccu0RqlP.s 			page 8


  13:Include/benchmark.h **** #define RME_WORD_BIT_Q1                             RME_WORD_BIT_O2
  14:Include/benchmark.h **** #define RME_WORD_BIT_Q2                             RME_WORD_BIT_O4
  15:Include/benchmark.h **** #define RME_WORD_BIT_Q3                             RME_WORD_BIT_O6
  16:Include/benchmark.h **** #define RME_WORD_BIT_D1                             RME_WORD_BIT_Q2
  17:Include/benchmark.h **** /* Thread creation */
  18:Include/benchmark.h **** #define RME_THD_SVC(ATTR,IS_HYP,SVC)                (RME_FIELD(ATTR,7U)|RME_FIELD(IS_HYP,6U)|(SVC))
  19:Include/benchmark.h **** /* UART peripheral address */
  20:Include/benchmark.h **** #define RME_A7A_UART_CONTROL      					(*((volatile unsigned int*)(0xE0001000)))
  21:Include/benchmark.h **** #define RME_A7A_UART_MODE         					(*((volatile unsigned int*)(0xE0001004)))
  22:Include/benchmark.h **** #define RME_A7A_UART_BRGEN        					(*((volatile unsigned int*)(0xE0001018)))
  23:Include/benchmark.h **** #define RME_A7A_UART_STATUS       					(*((volatile unsigned int*)(0xE000102C)))
  24:Include/benchmark.h **** #define RME_A7A_UART_FIFO         					(*((volatile unsigned int*)(0xE0001030)))
  25:Include/benchmark.h **** #define RME_A7A_UART_BRDIV        					(*((volatile unsigned int*)(0xE0001034)))
  26:Include/benchmark.h **** #define RME_A7A_UART_STATUS_TXE   					(1U<<3)
  27:Include/benchmark.h **** //#define RME_DBG_S(STR)                              RME_Str_Print((const signed char*)(STR))
  28:Include/benchmark.h **** /* NULL */
  29:Include/benchmark.h **** #define RME_NULL 									0
  30:Include/benchmark.h **** 
  31:Include/benchmark.h **** #define RME_A7A_PUTCHAR(CHAR) \
  32:Include/benchmark.h **** do \
  33:Include/benchmark.h **** { \
  34:Include/benchmark.h ****     while((RME_A7A_UART_STATUS&RME_A7A_UART_STATUS_TXE)==0); \
  35:Include/benchmark.h **** 	RME_A7A_UART_FIFO=(CHAR); \
  36:Include/benchmark.h **** } \
  37:Include/benchmark.h **** while(0)
  38:Include/benchmark.h **** 
  39:Include/benchmark.h **** /* Define ********************************************************************/
  40:Include/benchmark.h **** /* Types */
  41:Include/benchmark.h **** typedef signed int                          s32;
  42:Include/benchmark.h **** typedef signed short                        s16;
  43:Include/benchmark.h **** typedef signed char                         s8;
  44:Include/benchmark.h **** typedef unsigned int                        u32;
  45:Include/benchmark.h **** typedef unsigned short                      u16;
  46:Include/benchmark.h **** typedef unsigned char                       u8;
  47:Include/benchmark.h **** typedef s32                                 tid_t;
  48:Include/benchmark.h **** typedef u32                       			ptr_t;
  49:Include/benchmark.h **** typedef s32                       			cnt_t;
  50:Include/benchmark.h **** typedef s32 								cid_t;
  51:Include/benchmark.h **** typedef s32                        			ret_t;
  52:Include/benchmark.h **** 
  53:Include/benchmark.h **** #define BENCHMARK_STACK_SIZE 4096
  54:Include/benchmark.h **** /* System service stub */
  55:Include/benchmark.h **** //#define RME_CAP_OP(OP,CAPID,ARG1,ARG2,ARG3) RME_Svc(((OP)<<(sizeof(ptr_t)*4)|(CAPID)),ARG1,ARG2,A
  56:Include/benchmark.h **** #define RME_PARAM_D_MASK                    (((ptr_t)(-1))>>(sizeof(ptr_t)*4))
  57:Include/benchmark.h **** #define RME_PARAM_Q_MASK                    (((ptr_t)(-1))>>(sizeof(ptr_t)*6))
  58:Include/benchmark.h **** #define RME_PARAM_O_MASK                    (((ptr_t)(-1))>>(sizeof(ptr_t)*7))
  59:Include/benchmark.h **** /* The parameter passing - not to be confused with kernel macros. These macros just place the param
  60:Include/benchmark.h **** #define RME_PARAM_D1(X)                     (((X)&RME_PARAM_D_MASK)<<(sizeof(ptr_t)*4))
  61:Include/benchmark.h **** #define RME_PARAM_D0(X)                     ((X)&RME_PARAM_D_MASK)
  62:Include/benchmark.h **** 
  63:Include/benchmark.h **** #define RME_PARAM_Q3(X)                     (((X)&RME_PARAM_Q_MASK)<<(sizeof(ptr_t)*6))
  64:Include/benchmark.h **** #define RME_PARAM_Q2(X)                     (((X)&RME_PARAM_Q_MASK)<<(sizeof(ptr_t)*4))
  65:Include/benchmark.h **** #define RME_PARAM_Q1(X)                     (((X)&RME_PARAM_Q_MASK)<<(sizeof(ptr_t)*2))
  66:Include/benchmark.h **** #define RME_PARAM_Q0(X)                     ((X)&RME_PARAM_Q_MASK)
  67:Include/benchmark.h **** 
  68:Include/benchmark.h **** #define RME_PARAM_O7(X)                     (((X)&RME_PARAM_O_MASK)<<(sizeof(ptr_t)*7))
  69:Include/benchmark.h **** #define RME_PARAM_O6(X)                     (((X)&RME_PARAM_O_MASK)<<(sizeof(ptr_t)*6))
ARM GAS  C:\Users\even\AppData\Local\Temp\ccu0RqlP.s 			page 9


  70:Include/benchmark.h **** #define RME_PARAM_O5(X)                     (((X)&RME_PARAM_O_MASK)<<(sizeof(ptr_t)*5))
  71:Include/benchmark.h **** #define RME_PARAM_O4(X)                     (((X)&RME_PARAM_O_MASK)<<(sizeof(ptr_t)*4))
  72:Include/benchmark.h **** #define RME_PARAM_O3(X)                     (((X)&RME_PARAM_O_MASK)<<(sizeof(ptr_t)*3))
  73:Include/benchmark.h **** #define RME_PARAM_O2(X)                     (((X)&RME_PARAM_O_MASK)<<(sizeof(ptr_t)*2))
  74:Include/benchmark.h **** #define RME_PARAM_O1(X)                     (((X)&RME_PARAM_O_MASK)<<(sizeof(ptr_t)*1))
  75:Include/benchmark.h **** #define RME_PARAM_O0(X)                     ((X)&RME_PARAM_O_MASK)
  76:Include/benchmark.h **** 
  77:Include/benchmark.h **** 
  78:Include/benchmark.h **** /* Bit mask */
  79:Include/benchmark.h **** #define RME_MASK_FULL                               (~((ptr_t)0U))
  80:Include/benchmark.h **** #define RME_MASK_WORD                               (~(RME_MASK_FULL<<RME_WORD_ORDER))
  81:Include/benchmark.h **** #define RME_MASK_WORD_O                             RME_MASK_END(RME_WORD_BIT_O1-1U)
  82:Include/benchmark.h **** #define RME_MASK_WORD_Q                             RME_MASK_END(RME_WORD_BIT_Q1-1U)
  83:Include/benchmark.h **** #define RME_MASK_WORD_D                             RME_MASK_END(RME_WORD_BIT_D1-1U)
  84:Include/benchmark.h **** /* Init thread infinite time marker */
  85:Include/benchmark.h **** #define RME_THD_INIT_TIME                           (RME_MASK_FULL>>1)
  86:Include/benchmark.h **** /* Other thread infinite time marker */
  87:Include/benchmark.h **** #define RME_THD_INF_TIME                            (RME_THD_INIT_TIME-1U)
  88:Include/benchmark.h **** 
  89:Include/benchmark.h **** /* Initial boot capabilities - This should be in accordnace with the kernel settings */
  90:Include/benchmark.h **** /* The capability table of the init process */
  91:Include/benchmark.h **** #define RME_BOOT_INIT_CPT                 		0
  92:Include/benchmark.h **** /* The top-level page table of the init process - always 4GB full range split into 8 pages */
  93:Include/benchmark.h **** #define RME_BOOT_INIT_PGT                 		1
  94:Include/benchmark.h **** /* The init process */
  95:Include/benchmark.h **** #define RME_BOOT_INIT_PRC                 		2
  96:Include/benchmark.h **** /* The init thread */
  97:Include/benchmark.h **** #define RME_BOOT_INIT_THD                 		3
  98:Include/benchmark.h **** /* The initial kernel function capability */
  99:Include/benchmark.h **** #define RME_BOOT_INIT_KFN          				4
 100:Include/benchmark.h **** /* The initial kernel memory capability */
 101:Include/benchmark.h **** #define RME_BOOT_INIT_KOM         				5
 102:Include/benchmark.h **** /* The initial timer endpoint */
 103:Include/benchmark.h **** #define RME_BOOT_INIT_TIMER      				6
 104:Include/benchmark.h **** /* The test objects */
 105:Include/benchmark.h **** #define RME_BOOT_BENCH_THD       				8
 106:Include/benchmark.h **** #define RME_BOOT_BENCH_PGT   				    9
 107:Include/benchmark.h **** #define RME_BOOT_BENCH_PGT_SRAM  				10
 108:Include/benchmark.h **** #define RME_BOOT_BENCH_SEN_THD					14
 109:Include/benchmark.h **** #define RME_BOOT_BENCH_RCV_THD					15
 110:Include/benchmark.h **** #define RME_BOOT_BENCH_THD_MAIN					16
 111:Include/benchmark.h **** #define RME_BOOT_BENCH_PRC                 		17
 112:Include/benchmark.h **** #define RME_BOOT_BENCH_INV						18
 113:Include/benchmark.h **** /* The top-level page table of the init process's SRAM */
 114:Include/benchmark.h **** #define RME_BOOT_INIT_PGT_SRAM    				11
 115:Include/benchmark.h **** /* the signal capability */
 116:Include/benchmark.h **** #define RME_BOOT_SIG_BENCH						13
 117:Include/benchmark.h **** /* Power of 2 */
 118:Include/benchmark.h **** #define RME_FIELD(VAL,POW)                      (((ptr_t)(VAL))<<(POW))
 119:Include/benchmark.h **** #define RME_POW2(POW)                           RME_FIELD(1U,POW)
 120:Include/benchmark.h **** /* Page table base address/top-level attributes */
 121:Include/benchmark.h **** #define RME_PGT_BASE(X)                         ((X)&RME_MASK_BEGIN(1U))
 122:Include/benchmark.h **** #define RME_PGT_TOP                             (1U)
 123:Include/benchmark.h **** #define RME_PGT_NOM                             (0U)
 124:Include/benchmark.h **** /* Page table */
 125:Include/benchmark.h **** #define RME_PGT_SVC(NUM_ORDER,SVC)                  (RME_FIELD(NUM_ORDER,RME_WORD_BIT_Q1)|(SVC))
 126:Include/benchmark.h **** /* The order of bits in one CPU machine word */
ARM GAS  C:\Users\even\AppData\Local\Temp\ccu0RqlP.s 			page 10


 127:Include/benchmark.h **** #define RME_WORD_ORDER            				(5U)
 128:Include/benchmark.h **** /* Word size */
 129:Include/benchmark.h **** #define RME_WORD_BIT                            RME_POW2(RME_WORD_ORDER)
 130:Include/benchmark.h **** /* Need to export the memory frontier! */
 131:Include/benchmark.h **** /* Need to export the flags as well ! */
 132:Include/benchmark.h **** /* Export the errno too */
 133:Include/benchmark.h **** #define RME_BOOT_BENCH_KOM_FRONTIER 			0x00008000U
 134:Include/benchmark.h **** /* Bench process page table real address */
 135:Include/benchmark.h **** #define RME_BOOT_BENCH_PGT_RADDR 				0x00060000U
 136:Include/benchmark.h **** /* The kernel-accessible virtual memory address,for this thread's register sets */
 137:Include/benchmark.h **** #define RME_BOOT_HYPER_KOM_VADDR                0x00000000U
 138:Include/benchmark.h **** /* The virtual memory start address for the kernel objects */
 139:Include/benchmark.h **** #define RME_KOM_VA_BASE              			0x81000000U
 140:Include/benchmark.h **** //0x10005000
 141:Include/benchmark.h **** /* The stack safe size */
 142:Include/benchmark.h **** #define RME_STACK_SAFE_SIZE 					16
 143:Include/benchmark.h **** /* Doesn't want to receive the scheduler signal for the thread */
 144:Include/benchmark.h **** #define RME_CID_NULL   							0x8000
 145:Include/benchmark.h **** /* The maximum priority allowed for this thread. Once set, this cannot be changed. */
 146:Include/benchmark.h **** #define RME_THD_PRIO_MAX                        31
 147:Include/benchmark.h **** /*The thread ID*/
 148:Include/benchmark.h **** #define RME_TID_1                               1
 149:Include/benchmark.h **** #define RME_TID_2                               2
 150:Include/benchmark.h **** #define RME_TID_3                               3
 151:Include/benchmark.h **** #define RME_TID_4                               4
 152:Include/benchmark.h **** #define RME_TID_6                               6
 153:Include/benchmark.h **** 
 154:Include/benchmark.h **** #define RME_A7A_SFR(BASE,OFFSET)        (*((volatile ptr_t*)((ptr_t)((BASE)+(OFFSET)))))
 155:Include/benchmark.h **** 
 156:Include/benchmark.h **** /* Private timer and watchdog block base */
 157:Include/benchmark.h **** #define RME_A7A_PTWD_BASE           0xF8F00600
 158:Include/benchmark.h **** /* global timer base */
 159:Include/benchmark.h **** #define RME_A7A_GTWD_BASE           0xF8F00200/* Timer definitions */
 160:Include/benchmark.h **** #define RME_A7A_SYSTICK_VAL        (7670000U/2U)
 161:Include/benchmark.h **** /* global timer count register 0 */
 162:Include/benchmark.h **** #define RME_A7A_GTWD_GTCR0              RME_A7A_SFR(RME_A7A_GTWD_BASE,0x0000)
 163:Include/benchmark.h **** /* global timer count register 1 ,not need to use */
 164:Include/benchmark.h **** #define RME_A7A_GTWD_GTCR1              RME_A7A_SFR(RME_A7A_GTWD_BASE,0x0004)
 165:Include/benchmark.h **** /* global timer control register */
 166:Include/benchmark.h **** #define RME_A7A_GTWD_GTCTLR             RME_A7A_SFR(RME_A7A_GTWD_BASE,0x0008)
 167:Include/benchmark.h **** /* global timer is enabled and the counter increments normally */
 168:Include/benchmark.h **** #define RME_A7A_GTWD_GTCTLR_TIMEN       (1U<<0U)
 169:Include/benchmark.h **** /* Private timer load register */
 170:Include/benchmark.h **** #define RME_A7A_PTWD_PTLR               RME_A7A_SFR(RME_A7A_PTWD_BASE,0x0000)
 171:Include/benchmark.h **** /* Private timer counter register */
 172:Include/benchmark.h **** #define RME_A7A_PTWD_PTCNTR             RME_A7A_SFR(RME_A7A_PTWD_BASE,0x0004)
 173:Include/benchmark.h **** /* Private timer control register */
 174:Include/benchmark.h **** #define RME_A7A_PTWD_PTCTLR             RME_A7A_SFR(RME_A7A_PTWD_BASE,0x0008)
 175:Include/benchmark.h **** #define RME_A7A_PTWD_PTCTLR_PRESC(X)    ((X)<<8U)
 176:Include/benchmark.h **** #define RME_A7A_PTWD_PTCTLR_IRQEN       (1U<<2U)
 177:Include/benchmark.h **** #define RME_A7A_PTWD_PTCTLR_AUTOREL     (1U<<1U)
 178:Include/benchmark.h **** #define RME_A7A_PTWD_PTCTLR_TIMEN       (1U<<0U)
 179:Include/benchmark.h **** /* Private timer interrupt status register */
 180:Include/benchmark.h **** #define RME_A7A_PTWD_PTISR              RME_A7A_SFR(RME_A7A_PTWD_BASE,0x000C)
 181:Include/benchmark.h **** 
 182:Include/benchmark.h **** /* End Define ****************************************************************/
 183:Include/benchmark.h **** 
ARM GAS  C:\Users\even\AppData\Local\Temp\ccu0RqlP.s 			page 11


 184:Include/benchmark.h **** 
 185:Include/benchmark.h **** 
 186:Include/benchmark.h **** /* Private Variables *********************************************************/
 187:Include/benchmark.h **** /* The stack of the threads - enough for 4 threads */
 188:Include/benchmark.h **** ptr_t RME_Stack1[2048];
 189:Include/benchmark.h **** ptr_t RME_Stack2[2048];
 190:Include/benchmark.h **** ptr_t RME_Stack3[2048];
 191:Include/benchmark.h **** ptr_t RME_Stack4[2048];
 192:Include/benchmark.h **** ptr_t RME_Stack5[2048];
 193:Include/benchmark.h **** u16 Time[10000];
 194:Include/benchmark.h **** s8 RME_Bench_Buf[1024];
 195:Include/benchmark.h **** /* End Private Variables *****************************************************/
 196:Include/benchmark.h **** 
 197:Include/benchmark.h **** /* Function Prototypes *******************************************************/
 198:Include/benchmark.h **** extern ret_t RME_Svc(ptr_t Svc_Capid,ptr_t Param1, ptr_t Param2, ptr_t Param3);
 199:Include/benchmark.h **** /* System service stub */
 200:Include/benchmark.h **** #define RME_SVC(SVC,CID,ARG1,ARG2,ARG3)             RME_Svc(RME_FIELD(SVC,RME_WORD_BIT_D1)|((ptr_t)
 201:Include/benchmark.h **** extern cnt_t RME_Sprint_Uint(s8* Buffer,u32 Arg_Int);
 202:Include/benchmark.h **** extern void RME_Thd_Stub(void);
 203:Include/benchmark.h **** extern void RME_Inv_Stub(void);
 204:Include/benchmark.h **** ptr_t _RME_Stack_Init(ptr_t Stack, ptr_t Stub, ptr_t Param1, ptr_t Param2, ptr_t Param3, ptr_t Para
 205:Include/benchmark.h **** void RME_Benchmark(void);
 206:Include/benchmark.h **** void RME_Same_Prc_Thd_Switch_Test_Thd(ptr_t Param1);
 207:Include/benchmark.h **** void RME_Same_Prc_Thd_Switch_Test(void);
 208:Include/benchmark.h **** /* End Function Prototypes ***************************************************/
 209:Include/benchmark.h **** 
 210:Include/benchmark.h **** /* Register access */
 211:Include/benchmark.h **** #define RME_A7A_REG(X)                          (*((volatile ptr_t*)(X)))
 212:Include/benchmark.h **** 
 213:Include/benchmark.h **** /* Function:__USR_Putchar *****************************************************
 214:Include/benchmark.h **** Description : Output a character to console. In Cortex-M, under most circumstances,
 215:Include/benchmark.h ****               we should use the ITM for such outputs.
 216:Include/benchmark.h **** Input       : char Char - The character to print.
 217:Include/benchmark.h **** Output      : None.
 218:Include/benchmark.h **** Return      : rme_ptr_t - Always 0.
 219:Include/benchmark.h **** ******************************************************************************/
 220:Include/benchmark.h **** ptr_t __USR_Putchar(char Char)
 221:Include/benchmark.h **** {
 222:Include/benchmark.h ****     RME_A7A_PUTCHAR(Char);
 223:Include/benchmark.h ****     return 0;
 224:Include/benchmark.h **** }
 225:Include/benchmark.h **** /* End Function __USR_Putchar ***************************************************/
 226:Include/benchmark.h **** 
 227:Include/benchmark.h **** 
 228:Include/benchmark.h **** /* Function:USR_DBG_I *****************************************************
 229:Include/benchmark.h **** Description : Print a signed integer on the debugging console. This integer is
 230:Include/benchmark.h ****               printed as decimal with sign.
 231:Include/benchmark.h **** Input       : rme_cnt_t Int - The integer to print.
 232:Include/benchmark.h **** Output      : None.
 233:Include/benchmark.h **** Return      : rme_cnt_t - The length of the string printed.
 234:Include/benchmark.h **** ******************************************************************************/
 235:Include/benchmark.h **** cnt_t USR_DBG_I(cnt_t Int)
 236:Include/benchmark.h **** {
 237:Include/benchmark.h ****     cnt_t Num;
 238:Include/benchmark.h ****     cnt_t Abs;
 239:Include/benchmark.h ****     cnt_t Iter;
 240:Include/benchmark.h ****     cnt_t Count;
ARM GAS  C:\Users\even\AppData\Local\Temp\ccu0RqlP.s 			page 12


 241:Include/benchmark.h ****     cnt_t Div;
 242:Include/benchmark.h **** 
 243:Include/benchmark.h ****     /* Exit on zero */
 244:Include/benchmark.h ****     if(Int==0)
 245:Include/benchmark.h ****     {
 246:Include/benchmark.h **** 
 247:Include/benchmark.h **** 
 248:Include/benchmark.h ****         __USR_Putchar('0');
 249:Include/benchmark.h ****         return 1;
 250:Include/benchmark.h ****     }
 251:Include/benchmark.h ****     else
 252:Include/benchmark.h ****     {
 253:Include/benchmark.h **** 
 254:Include/benchmark.h ****         /* No action required */
 255:Include/benchmark.h ****     }
 256:Include/benchmark.h **** 
 257:Include/benchmark.h **** 
 258:Include/benchmark.h ****     /* Correct all negatives into positives */
 259:Include/benchmark.h ****     if(Int<0)
 260:Include/benchmark.h ****     {
 261:Include/benchmark.h **** 
 262:Include/benchmark.h **** 
 263:Include/benchmark.h ****         __USR_Putchar('-');
 264:Include/benchmark.h ****         Abs=-Int;
 265:Include/benchmark.h ****         Num=1;
 266:Include/benchmark.h ****     }
 267:Include/benchmark.h ****     else
 268:Include/benchmark.h ****     {
 269:Include/benchmark.h **** 
 270:Include/benchmark.h **** 
 271:Include/benchmark.h ****         Abs=Int;
 272:Include/benchmark.h ****         Num=0;
 273:Include/benchmark.h ****     }
 274:Include/benchmark.h **** 
 275:Include/benchmark.h ****     /* How many digits are there? */
 276:Include/benchmark.h ****     Count=0;
 277:Include/benchmark.h ****     Div=1;
 278:Include/benchmark.h ****     Iter=Abs;
 279:Include/benchmark.h ****     while(1U)
 280:Include/benchmark.h ****     {
 281:Include/benchmark.h ****         Iter/=10;
 282:Include/benchmark.h ****         Count++;
 283:Include/benchmark.h ****         if(Iter!=0)
 284:Include/benchmark.h ****         {
 285:Include/benchmark.h **** 
 286:Include/benchmark.h **** 
 287:Include/benchmark.h ****             Div*=10;
 288:Include/benchmark.h ****         }
 289:Include/benchmark.h ****         else
 290:Include/benchmark.h ****         {
 291:Include/benchmark.h **** 
 292:Include/benchmark.h **** 
 293:Include/benchmark.h ****             break;
 294:Include/benchmark.h ****         }
 295:Include/benchmark.h ****     }
 296:Include/benchmark.h ****     Num+=Count;
 297:Include/benchmark.h **** 
ARM GAS  C:\Users\even\AppData\Local\Temp\ccu0RqlP.s 			page 13


 298:Include/benchmark.h ****     /* Print the integer */
 299:Include/benchmark.h ****     Iter=Abs;
 300:Include/benchmark.h **** 
 301:Include/benchmark.h ****     while(Count>0)
 302:Include/benchmark.h ****     {
 303:Include/benchmark.h ****         Count--;
 304:Include/benchmark.h ****         __USR_Putchar((s8)(Iter/Div)+'0');
 305:Include/benchmark.h ****         Iter=Iter%Div;
 306:Include/benchmark.h ****         Div/=10;
 307:Include/benchmark.h ****     }
 308:Include/benchmark.h **** 
 309:Include/benchmark.h ****     return Num;
 310:Include/benchmark.h **** }
 311:Include/benchmark.h **** /* End Function:USR_DBG_I ************************************************/
 312:Include/benchmark.h **** 
 313:Include/benchmark.h **** /* Function:USR_DBG_H *****************************************************
 314:Include/benchmark.h **** Description : Print a unsigned integer on the debugging console. This integer is
 315:Include/benchmark.h ****               printed as hexadecimal.
 316:Include/benchmark.h **** Input       : rme_ptr_t Uint - The unsigned integer to print.
 317:Include/benchmark.h **** Output      : None.
 318:Include/benchmark.h **** Return      : rme_cnt_t - The length of the string printed.
 319:Include/benchmark.h **** ******************************************************************************/
 320:Include/benchmark.h **** cnt_t USR_DBG_H(ptr_t Uint)
 321:Include/benchmark.h **** {
 322:Include/benchmark.h ****     ptr_t Iter;
 323:Include/benchmark.h ****     ptr_t Count;
 324:Include/benchmark.h ****     ptr_t Num;
 325:Include/benchmark.h **** 
 326:Include/benchmark.h ****     /* Exit on zero */
 327:Include/benchmark.h ****     if(Uint==0U)
 328:Include/benchmark.h ****     {
 329:Include/benchmark.h ****         __USR_Putchar('0');
 330:Include/benchmark.h ****         return 1;
 331:Include/benchmark.h ****     }
 332:Include/benchmark.h ****     else
 333:Include/benchmark.h ****     {
 334:Include/benchmark.h ****         /* No action required */
 335:Include/benchmark.h ****     }
 336:Include/benchmark.h **** 
 337:Include/benchmark.h ****     /* Filter out all the zeroes */
 338:Include/benchmark.h ****     Count=0U;
 339:Include/benchmark.h ****     Iter=Uint;
 340:Include/benchmark.h ****     while((Iter>>(RME_WORD_BIT-4U))==0U)
 341:Include/benchmark.h ****     {
 342:Include/benchmark.h ****         Iter<<=4;
 343:Include/benchmark.h ****         Count++;
 344:Include/benchmark.h ****     }
 345:Include/benchmark.h **** 
 346:Include/benchmark.h ****     /* Count is the number of pts to print */
 347:Include/benchmark.h ****     Count=RME_POW2(RME_WORD_ORDER-2U)-Count;
 348:Include/benchmark.h ****     Num=Count;
 349:Include/benchmark.h ****     while(Count>0U)
 350:Include/benchmark.h ****     {
 351:Include/benchmark.h ****         Count--;
 352:Include/benchmark.h ****         Iter=(Uint>>(Count<<2U))&0x0FU;
 353:Include/benchmark.h ****         if(Iter<10U)
 354:Include/benchmark.h ****         {
ARM GAS  C:\Users\even\AppData\Local\Temp\ccu0RqlP.s 			page 14


 355:Include/benchmark.h **** 
 356:Include/benchmark.h ****             __USR_Putchar((s8)Iter+'0');
 357:Include/benchmark.h ****         }
 358:Include/benchmark.h ****         else
 359:Include/benchmark.h ****         {
 360:Include/benchmark.h **** 
 361:Include/benchmark.h ****             __USR_Putchar((s8)Iter+'A'-10);
 362:Include/benchmark.h ****         }
 363:Include/benchmark.h ****     }
 364:Include/benchmark.h **** 
 365:Include/benchmark.h ****     return (cnt_t)Num;
 366:Include/benchmark.h **** }
 367:Include/benchmark.h **** /* End Function:USR_DBG_H ************************************************/
 368:Include/benchmark.h **** cnt_t USR_DBG_S(const s8* String)
 111              		.loc 3 368 7 view .LVU14
 112              	.LBB302:
 369:Include/benchmark.h **** {
 370:Include/benchmark.h ****     ptr_t Count;
 113              		.loc 3 370 5 view .LVU15
 371:Include/benchmark.h **** 
 372:Include/benchmark.h ****     for(Count=0U;Count<255;Count++)
 114              		.loc 3 372 5 view .LVU16
 115              		.loc 3 372 23 discriminator 1 view .LVU17
 116 0000 001000E3 		movw	r1, #:lower16:.LC0
 117              	.LBB303:
 118              	.LBB304:
 222:Include/benchmark.h ****     return 0;
 119              		.loc 3 222 5 is_stmt 0 discriminator 1 view .LVU18
 120 0004 012AA0E3 		mov	r2, #4096
 121 0008 001040E3 		movt	r1, #:upper16:.LC0
 122 000c 00204EE3 		movt	r2, 57344
 123 0010 FFC081E2 		add	ip, r1, #255
 124              	.LBE304:
 125              	.LBE303:
 126              	.LBE302:
 127              	.LBE301:
 101:Source/rme_benchmark.c **** 	USR_DBG_S("\r\nEntering send thread!");
 128              		.loc 1 101 1 view .LVU19
 129 0014 80402DE9 		push	{r7, lr}
 130              		.cfi_def_cfa_offset 8
 131              		.cfi_offset 7, -8
 132              		.cfi_offset 14, -4
 133              	.LVL4:
 134              	.L10:
 135              	.LBB310:
 136              	.LBB309:
 373:Include/benchmark.h ****     {
 374:Include/benchmark.h ****         if(String[Count]==(s8)'\0')
 137              		.loc 3 374 9 is_stmt 1 view .LVU20
 138              		.loc 3 374 18 is_stmt 0 view .LVU21
 139 0018 D100D1E0 		ldrsb	r0, [r1], #1
 140              	.LVL5:
 141              		.loc 3 374 11 view .LVU22
 142 001c 000050E3 		cmp	r0, #0
 143 0020 0500000A 		beq	.L11
 144              	.L8:
 145              	.LBB307:
ARM GAS  C:\Users\even\AppData\Local\Temp\ccu0RqlP.s 			page 15


 146              	.LBB305:
 222:Include/benchmark.h ****     return 0;
 147              		.loc 3 222 5 is_stmt 1 discriminator 1 view .LVU23
 148 0024 2C3092E5 		ldr	r3, [r2, #44]
 149 0028 080013E3 		tst	r3, #8
 150 002c FCFFFF0A 		beq	.L8
 222:Include/benchmark.h ****     return 0;
 151              		.loc 3 222 5 discriminator 2 view .LVU24
 152              	.LBE305:
 153              	.LBE307:
 372:Include/benchmark.h ****     {
 154              		.loc 3 372 23 is_stmt 0 discriminator 1 view .LVU25
 155 0030 0C0051E1 		cmp	r1, ip
 156              	.LBB308:
 157              	.LBB306:
 222:Include/benchmark.h ****     return 0;
 158              		.loc 3 222 5 discriminator 2 view .LVU26
 159 0034 300082E5 		str	r0, [r2, #48]
 222:Include/benchmark.h ****     return 0;
 160              		.loc 3 222 5 is_stmt 1 view .LVU27
 223:Include/benchmark.h **** }
 161              		.loc 3 223 5 view .LVU28
 162              	.LBE306:
 163              	.LBE308:
 372:Include/benchmark.h ****     {
 164              		.loc 3 372 33 discriminator 2 view .LVU29
 165              	.LVL6:
 372:Include/benchmark.h ****     {
 166              		.loc 3 372 23 discriminator 1 view .LVU30
 167 0038 F6FFFF1A 		bne	.L10
 168              	.LVL7:
 169              	.L11:
 372:Include/benchmark.h ****     {
 170              		.loc 3 372 23 is_stmt 0 discriminator 1 view .LVU31
 171 003c 60509FE5 		ldr	r5, .L26
 172 0040 006000E3 		movw	r6, #:lower16:start
 173              	.LBE309:
 174              	.LBE310:
 175              	.LBB311:
 176              	.LBB312:
 177              	.LBB313:
 178              	.LBB314:
 222:Include/benchmark.h ****     return 0;
 179              		.loc 3 222 5 discriminator 1 view .LVU32
 180 0044 014AA0E3 		mov	r4, #4096
 181              	.LBE314:
 182              	.LBE313:
 183              	.LBE312:
 184              	.LBE311:
 185              	.LBB323:
 186              	.LBB324:
 375:Include/benchmark.h ****         {
 376:Include/benchmark.h **** 
 377:Include/benchmark.h ****             break;
 378:Include/benchmark.h ****         }
 379:Include/benchmark.h ****         else
 380:Include/benchmark.h ****         {
ARM GAS  C:\Users\even\AppData\Local\Temp\ccu0RqlP.s 			page 16


 381:Include/benchmark.h ****             /* No action required */
 382:Include/benchmark.h ****         }
 383:Include/benchmark.h **** 
 384:Include/benchmark.h ****         __USR_Putchar(String[Count]);
 385:Include/benchmark.h ****     }
 386:Include/benchmark.h **** 
 387:Include/benchmark.h ****     return (cnt_t)Count;
 388:Include/benchmark.h **** }
 389:Include/benchmark.h **** 
 390:Include/benchmark.h **** /* get current time */
 391:Include/benchmark.h **** ptr_t get_time(void)
 392:Include/benchmark.h **** {
 393:Include/benchmark.h **** 	ptr_t temp;
 394:Include/benchmark.h **** 	temp=RME_A7A_REG(&RME_A7A_GTWD_GTCR0);
 187              		.loc 3 394 6 view .LVU33
 188 0048 0070A0E3 		mov	r7, #0
 189 004c 006040E3 		movt	r6, #:upper16:start
 190              	.LBE324:
 191              	.LBE323:
 192              	.LBB327:
 193              	.LBB321:
 194              	.LBB318:
 195              	.LBB315:
 222:Include/benchmark.h ****     return 0;
 196              		.loc 3 222 5 discriminator 1 view .LVU34
 197 0050 00404EE3 		movt	r4, 57344
 198              	.LBE315:
 199              	.LBE318:
 200              	.LBE321:
 201              	.LBE327:
 202              	.LBB328:
 203              	.LBB325:
 204              		.loc 3 394 6 view .LVU35
 205 0054 F0784FE3 		movt	r7, 63728
 206              	.LVL8:
 207              	.L9:
 208              		.loc 3 394 6 view .LVU36
 209              	.LBE325:
 210              	.LBE328:
 103:Source/rme_benchmark.c **** 
 104:Source/rme_benchmark.c **** 
 105:Source/rme_benchmark.c **** 	while(1)
 211              		.loc 1 105 2 is_stmt 1 view .LVU37
 106:Source/rme_benchmark.c **** 	{
 107:Source/rme_benchmark.c **** 		USR_DBG_S("\r\nSend!");
 212              		.loc 1 107 3 view .LVU38
 213              	.LBB329:
 214              	.LBI311:
 368:Include/benchmark.h **** {
 215              		.loc 3 368 7 view .LVU39
 216              	.LBB322:
 370:Include/benchmark.h **** 
 217              		.loc 3 370 5 view .LVU40
 372:Include/benchmark.h ****     {
 218              		.loc 3 372 5 view .LVU41
 372:Include/benchmark.h ****     {
 219              		.loc 3 372 23 discriminator 1 view .LVU42
ARM GAS  C:\Users\even\AppData\Local\Temp\ccu0RqlP.s 			page 17


 220 0058 002000E3 		movw	r2, #:lower16:.LC1
 221 005c 002040E3 		movt	r2, #:upper16:.LC1
 222              	.LVL9:
 223              	.L14:
 374:Include/benchmark.h ****         {
 224              		.loc 3 374 9 view .LVU43
 374:Include/benchmark.h ****         {
 225              		.loc 3 374 18 is_stmt 0 view .LVU44
 226 0060 D110D2E0 		ldrsb	r1, [r2], #1
 227              	.LVL10:
 374:Include/benchmark.h ****         {
 228              		.loc 3 374 11 view .LVU45
 229 0064 000051E3 		cmp	r1, #0
 230 0068 0500000A 		beq	.L12
 231              	.L13:
 232              	.LBB319:
 233              	.LBB316:
 222:Include/benchmark.h ****     return 0;
 234              		.loc 3 222 5 is_stmt 1 discriminator 1 view .LVU46
 235 006c 2C3094E5 		ldr	r3, [r4, #44]
 236 0070 080013E3 		tst	r3, #8
 237 0074 FCFFFF0A 		beq	.L13
 222:Include/benchmark.h ****     return 0;
 238              		.loc 3 222 5 discriminator 2 view .LVU47
 239              	.LBE316:
 240              	.LBE319:
 372:Include/benchmark.h ****     {
 241              		.loc 3 372 23 is_stmt 0 discriminator 1 view .LVU48
 242 0078 020055E1 		cmp	r5, r2
 243              	.LBB320:
 244              	.LBB317:
 222:Include/benchmark.h ****     return 0;
 245              		.loc 3 222 5 discriminator 2 view .LVU49
 246 007c 301084E5 		str	r1, [r4, #48]
 222:Include/benchmark.h ****     return 0;
 247              		.loc 3 222 5 is_stmt 1 view .LVU50
 223:Include/benchmark.h **** }
 248              		.loc 3 223 5 view .LVU51
 249              	.LBE317:
 250              	.LBE320:
 372:Include/benchmark.h ****     {
 251              		.loc 3 372 33 discriminator 2 view .LVU52
 252              	.LVL11:
 372:Include/benchmark.h ****     {
 253              		.loc 3 372 23 discriminator 1 view .LVU53
 254 0080 F6FFFF1A 		bne	.L14
 255              	.LVL12:
 256              	.L12:
 387:Include/benchmark.h **** }
 257              		.loc 3 387 5 view .LVU54
 387:Include/benchmark.h **** }
 258              		.loc 3 387 5 is_stmt 0 view .LVU55
 259              	.LBE322:
 260              	.LBE329:
 108:Source/rme_benchmark.c **** 		start=get_time();
 261              		.loc 1 108 3 is_stmt 1 view .LVU56
 262              	.LBB330:
ARM GAS  C:\Users\even\AppData\Local\Temp\ccu0RqlP.s 			page 18


 263              	.LBI323:
 391:Include/benchmark.h **** {
 264              		.loc 3 391 7 view .LVU57
 265              	.LBB326:
 393:Include/benchmark.h **** 	temp=RME_A7A_REG(&RME_A7A_GTWD_GTCR0);
 266              		.loc 3 393 2 view .LVU58
 267              		.loc 3 394 2 view .LVU59
 268              		.loc 3 394 6 is_stmt 0 view .LVU60
 269 0084 00C297E5 		ldr	ip, [r7, #512]
 270              	.LVL13:
 395:Include/benchmark.h **** 	return temp;
 271              		.loc 3 395 2 is_stmt 1 view .LVU61
 272              		.loc 3 395 2 is_stmt 0 view .LVU62
 273              	.LBE326:
 274              	.LBE330:
 275              	.LBB331:
 276              	.LBB332:
 175:Include/sys.h **** }
 176:Include/sys.h **** /* End Function:RME_Thd_Swt **************************************************/
 177:Include/sys.h **** /*asynchronous communication function*/
 178:Include/sys.h **** /* Function:RME_Sig_Crt *******************************************************
 179:Include/sys.h **** Description : Create a signal endpoint.
 180:Include/sys.h **** Input       : RME_cid_t Cap_Cpt - The capability to the capability table to use
 181:Include/sys.h ****                                   for this signal.
 182:Include/sys.h ****                                   2-Level.
 183:Include/sys.h ****               RME_cid_t Cap_Sig - The capability slot that you want this newly
 184:Include/sys.h ****                                   created signal capability to be in.
 185:Include/sys.h ****                                   1-Level.
 186:Include/sys.h **** Output      : None.
 187:Include/sys.h **** Return      : RME_ret_t - If successful, 0; or an error code.
 188:Include/sys.h **** ******************************************************************************/
 189:Include/sys.h **** ret_t RME_Sig_Crt(cid_t Cap_Cpt,
 190:Include/sys.h ****                   cid_t Cap_Sig)
 191:Include/sys.h **** {
 192:Include/sys.h ****     return RME_SVC(RME_SVC_SIG_CRT,
 193:Include/sys.h ****                    Cap_Cpt,
 194:Include/sys.h ****                    Cap_Sig,
 195:Include/sys.h ****                    0U,
 196:Include/sys.h ****                    0U);
 197:Include/sys.h **** }
 198:Include/sys.h **** /* End Function:RME_Sig_Crt **************************************************/
 199:Include/sys.h **** /* Function:RME_Sig_Del *******************************************************
 200:Include/sys.h **** Description : Delete a signal endpoint.
 201:Include/sys.h **** Input       : RME_cid_t Cap_Cpt - The capability to the capability table to
 202:Include/sys.h ****                                   delete from.
 203:Include/sys.h ****                                   2-Level.
 204:Include/sys.h ****               RME_cid_t Cap_Sig - The capability to the signal.
 205:Include/sys.h ****                                   1-Level.
 206:Include/sys.h **** Output      : None.
 207:Include/sys.h **** Return      : RME_ret_t - If successful, 0; or an error code.
 208:Include/sys.h **** ******************************************************************************/
 209:Include/sys.h **** ret_t RME_Sig_Del(cid_t Cap_Cpt,
 210:Include/sys.h ****                   cid_t Cap_Sig)
 211:Include/sys.h **** {
 212:Include/sys.h ****     return RME_SVC(RME_SVC_SIG_DEL,
 213:Include/sys.h ****                    Cap_Cpt,
 214:Include/sys.h ****                    Cap_Sig,
ARM GAS  C:\Users\even\AppData\Local\Temp\ccu0RqlP.s 			page 19


 215:Include/sys.h ****                    0U,
 216:Include/sys.h ****                    0U);
 217:Include/sys.h **** }
 218:Include/sys.h **** /* End Function:RME_Sig_Del **************************************************/
 219:Include/sys.h **** /* Function:RME_Sig_Snd ******************************************************
 220:Include/sys.h **** Description : Try to send to a signal endpoint. This system call can cause
 221:Include/sys.h ****               a potential context switch.
 222:Include/sys.h **** Input       : RME_cid_t Cap_Sig - The capability to the signal.
 223:Include/sys.h ****                                   2-Level.
 224:Include/sys.h **** Output      : None.
 225:Include/sys.h **** Return      : RME_ret_t - If successful, 0, or an error code.
 226:Include/sys.h **** ******************************************************************************/
 227:Include/sys.h **** ret_t RME_Sig_Snd(cid_t Cap_Sig)
 228:Include/sys.h **** {
 229:Include/sys.h ****     return RME_SVC(RME_SVC_SIG_SND,
 277              		.loc 2 229 12 view .LVU63
 278 0088 0030A0E3 		mov	r3, #0
 279 008c 0120A0E3 		mov	r2, #1
 280 0090 0D10A0E3 		mov	r1, #13
 281 0094 0208A0E3 		mov	r0, #131072
 282              	.LBE332:
 283              	.LBE331:
 284              		.loc 1 108 8 discriminator 1 view .LVU64
 285 0098 00C086E5 		str	ip, [r6]
 109:Source/rme_benchmark.c **** 		RME_Sig_Snd(RME_BOOT_SIG_BENCH);
 286              		.loc 1 109 3 is_stmt 1 discriminator 1 view .LVU65
 287              	.LVL14:
 288              	.LBB335:
 289              	.LBI331:
 227:Include/sys.h **** {
 290              		.loc 2 227 7 view .LVU66
 291              	.LBB333:
 292              		.loc 2 229 5 view .LVU67
 293              		.loc 2 229 12 is_stmt 0 view .LVU68
 294 009c FEFFFFEB 		bl	RME_Svc
 295              	.LVL15:
 230:Include/sys.h ****                    0U,
 231:Include/sys.h ****                    Cap_Sig,
 232:Include/sys.h ****                    1U,
 233:Include/sys.h ****                    0U);
 296              		.loc 2 233 23 is_stmt 1 view .LVU69
 297              		.loc 2 233 23 is_stmt 0 view .LVU70
 298              	.LBE333:
 299              	.LBE335:
 105:Source/rme_benchmark.c **** 	{
 300              		.loc 1 105 7 is_stmt 1 view .LVU71
 301              	.LBB336:
 302              	.LBB334:
 229:Include/sys.h ****                    0U,
 303              		.loc 2 229 12 is_stmt 0 view .LVU72
 304 00a0 ECFFFFEA 		b	.L9
 305              	.L27:
 306              		.align	2
 307              	.L26:
 308 00a4 FF000000 		.word	.LC1+255
 309              	.LBE334:
 310              	.LBE336:
ARM GAS  C:\Users\even\AppData\Local\Temp\ccu0RqlP.s 			page 20


 311              		.cfi_endproc
 312              	.LFE26:
 314              		.section	.rodata.RME_Diff_Prc_Thd_Sig_Test_Thd_send.str1.4,"aMS",%progbits,1
 315              		.align	2
 316              	.LC2:
 317 0000 0D0A456E 		.ascii	"\015\012Entering diff send thread!\000"
 317      74657269 
 317      6E672064 
 317      69666620 
 317      73656E64 
 318              		.section	.text.RME_Diff_Prc_Thd_Sig_Test_Thd_send,"ax",%progbits
 319              		.align	2
 320              		.global	RME_Diff_Prc_Thd_Sig_Test_Thd_send
 321              		.syntax unified
 322              		.arm
 324              	RME_Diff_Prc_Thd_Sig_Test_Thd_send:
 325              	.LFB28:
 110:Source/rme_benchmark.c **** 	}
 111:Source/rme_benchmark.c **** 
 112:Source/rme_benchmark.c **** }
 113:Source/rme_benchmark.c **** 
 114:Source/rme_benchmark.c **** void RME_Same_Prc_Thd_Sig_Test_Thd_recv(void) // high prio 5
 115:Source/rme_benchmark.c **** {
 116:Source/rme_benchmark.c **** 	USR_DBG_S("\r\nEntering receive thread!");
 117:Source/rme_benchmark.c **** 
 118:Source/rme_benchmark.c **** 	while(1)
 119:Source/rme_benchmark.c **** 	{
 120:Source/rme_benchmark.c **** 		if(RME_Sig_Rcv(RME_BOOT_SIG_BENCH,RME_RCV_BS)!=1)
 121:Source/rme_benchmark.c **** 		{
 122:Source/rme_benchmark.c **** 			USR_DBG_S("\r\nReceived wrong number!");
 123:Source/rme_benchmark.c **** 			while(1);
 124:Source/rme_benchmark.c **** 		}
 125:Source/rme_benchmark.c **** 		end=get_time();
 126:Source/rme_benchmark.c **** 		USR_DBG_S("\r\nReceived!");
 127:Source/rme_benchmark.c **** 		USR_DBG_S("\r\n same prc sig send take time");
 128:Source/rme_benchmark.c **** 		USR_DBG_I((end-start)*2);
 129:Source/rme_benchmark.c **** 	}
 130:Source/rme_benchmark.c **** }
 131:Source/rme_benchmark.c **** void RME_Diff_Prc_Thd_Sig_Test_Thd_send(void) //low prio 4
 132:Source/rme_benchmark.c **** {
 326              		.loc 1 132 1 is_stmt 1 view -0
 327              		.cfi_startproc
 328              		@ Volatile: function does not return.
 329              		@ args = 0, pretend = 0, frame = 0
 330              		@ frame_needed = 0, uses_anonymous_args = 0
 133:Source/rme_benchmark.c **** 	USR_DBG_S("\r\nEntering diff send thread!");
 331              		.loc 1 133 2 view .LVU74
 332              	.LVL16:
 333              	.LBB337:
 334              	.LBI337:
 368:Include/benchmark.h **** {
 335              		.loc 3 368 7 view .LVU75
 336              	.LBB338:
 370:Include/benchmark.h **** 
 337              		.loc 3 370 5 view .LVU76
 372:Include/benchmark.h ****     {
 338              		.loc 3 372 5 view .LVU77
ARM GAS  C:\Users\even\AppData\Local\Temp\ccu0RqlP.s 			page 21


 372:Include/benchmark.h ****     {
 339              		.loc 3 372 23 discriminator 1 view .LVU78
 340 0000 001000E3 		movw	r1, #:lower16:.LC2
 341              	.LBB339:
 342              	.LBB340:
 222:Include/benchmark.h ****     return 0;
 343              		.loc 3 222 5 is_stmt 0 discriminator 1 view .LVU79
 344 0004 012AA0E3 		mov	r2, #4096
 345 0008 001040E3 		movt	r1, #:upper16:.LC2
 346 000c 00204EE3 		movt	r2, 57344
 347 0010 FFC081E2 		add	ip, r1, #255
 348              	.LBE340:
 349              	.LBE339:
 350              	.LBE338:
 351              	.LBE337:
 132:Source/rme_benchmark.c **** 	USR_DBG_S("\r\nEntering diff send thread!");
 352              		.loc 1 132 1 view .LVU80
 353 0014 80402DE9 		push	{r7, lr}
 354              		.cfi_def_cfa_offset 8
 355              		.cfi_offset 7, -8
 356              		.cfi_offset 14, -4
 357              	.LVL17:
 358              	.L31:
 359              	.LBB346:
 360              	.LBB345:
 374:Include/benchmark.h ****         {
 361              		.loc 3 374 9 is_stmt 1 view .LVU81
 374:Include/benchmark.h ****         {
 362              		.loc 3 374 18 is_stmt 0 view .LVU82
 363 0018 D100D1E0 		ldrsb	r0, [r1], #1
 364              	.LVL18:
 374:Include/benchmark.h ****         {
 365              		.loc 3 374 11 view .LVU83
 366 001c 000050E3 		cmp	r0, #0
 367 0020 0500000A 		beq	.L32
 368              	.L29:
 369              	.LBB343:
 370              	.LBB341:
 222:Include/benchmark.h ****     return 0;
 371              		.loc 3 222 5 is_stmt 1 discriminator 1 view .LVU84
 372 0024 2C3092E5 		ldr	r3, [r2, #44]
 373 0028 080013E3 		tst	r3, #8
 374 002c FCFFFF0A 		beq	.L29
 222:Include/benchmark.h ****     return 0;
 375              		.loc 3 222 5 discriminator 2 view .LVU85
 376              	.LBE341:
 377              	.LBE343:
 372:Include/benchmark.h ****     {
 378              		.loc 3 372 23 is_stmt 0 discriminator 1 view .LVU86
 379 0030 0C0051E1 		cmp	r1, ip
 380              	.LBB344:
 381              	.LBB342:
 222:Include/benchmark.h ****     return 0;
 382              		.loc 3 222 5 discriminator 2 view .LVU87
 383 0034 300082E5 		str	r0, [r2, #48]
 222:Include/benchmark.h ****     return 0;
 384              		.loc 3 222 5 is_stmt 1 view .LVU88
ARM GAS  C:\Users\even\AppData\Local\Temp\ccu0RqlP.s 			page 22


 223:Include/benchmark.h **** }
 385              		.loc 3 223 5 view .LVU89
 386              	.LBE342:
 387              	.LBE344:
 372:Include/benchmark.h ****     {
 388              		.loc 3 372 33 discriminator 2 view .LVU90
 389              	.LVL19:
 372:Include/benchmark.h ****     {
 390              		.loc 3 372 23 discriminator 1 view .LVU91
 391 0038 F6FFFF1A 		bne	.L31
 392              	.LVL20:
 393              	.L32:
 372:Include/benchmark.h ****     {
 394              		.loc 3 372 23 is_stmt 0 discriminator 1 view .LVU92
 395 003c 60509FE5 		ldr	r5, .L47
 396 0040 006000E3 		movw	r6, #:lower16:start
 397              	.LBE345:
 398              	.LBE346:
 399              	.LBB347:
 400              	.LBB348:
 401              	.LBB349:
 402              	.LBB350:
 222:Include/benchmark.h ****     return 0;
 403              		.loc 3 222 5 discriminator 1 view .LVU93
 404 0044 014AA0E3 		mov	r4, #4096
 405              	.LBE350:
 406              	.LBE349:
 407              	.LBE348:
 408              	.LBE347:
 409              	.LBB359:
 410              	.LBB360:
 394:Include/benchmark.h **** 	return temp;
 411              		.loc 3 394 6 view .LVU94
 412 0048 0070A0E3 		mov	r7, #0
 413 004c 006040E3 		movt	r6, #:upper16:start
 414              	.LBE360:
 415              	.LBE359:
 416              	.LBB363:
 417              	.LBB357:
 418              	.LBB354:
 419              	.LBB351:
 222:Include/benchmark.h ****     return 0;
 420              		.loc 3 222 5 discriminator 1 view .LVU95
 421 0050 00404EE3 		movt	r4, 57344
 422              	.LBE351:
 423              	.LBE354:
 424              	.LBE357:
 425              	.LBE363:
 426              	.LBB364:
 427              	.LBB361:
 394:Include/benchmark.h **** 	return temp;
 428              		.loc 3 394 6 view .LVU96
 429 0054 F0784FE3 		movt	r7, 63728
 430              	.LVL21:
 431              	.L30:
 394:Include/benchmark.h **** 	return temp;
 432              		.loc 3 394 6 view .LVU97
ARM GAS  C:\Users\even\AppData\Local\Temp\ccu0RqlP.s 			page 23


 433              	.LBE361:
 434              	.LBE364:
 134:Source/rme_benchmark.c **** 
 135:Source/rme_benchmark.c **** 	while(1)
 435              		.loc 1 135 2 is_stmt 1 view .LVU98
 136:Source/rme_benchmark.c **** 	{
 137:Source/rme_benchmark.c **** 		USR_DBG_S("\r\nSend!");
 436              		.loc 1 137 3 view .LVU99
 437              	.LBB365:
 438              	.LBI347:
 368:Include/benchmark.h **** {
 439              		.loc 3 368 7 view .LVU100
 440              	.LBB358:
 370:Include/benchmark.h **** 
 441              		.loc 3 370 5 view .LVU101
 372:Include/benchmark.h ****     {
 442              		.loc 3 372 5 view .LVU102
 372:Include/benchmark.h ****     {
 443              		.loc 3 372 23 discriminator 1 view .LVU103
 444 0058 002000E3 		movw	r2, #:lower16:.LC1
 445 005c 002040E3 		movt	r2, #:upper16:.LC1
 446              	.LVL22:
 447              	.L35:
 374:Include/benchmark.h ****         {
 448              		.loc 3 374 9 view .LVU104
 374:Include/benchmark.h ****         {
 449              		.loc 3 374 18 is_stmt 0 view .LVU105
 450 0060 D110D2E0 		ldrsb	r1, [r2], #1
 451              	.LVL23:
 374:Include/benchmark.h ****         {
 452              		.loc 3 374 11 view .LVU106
 453 0064 000051E3 		cmp	r1, #0
 454 0068 0500000A 		beq	.L33
 455              	.L34:
 456              	.LBB355:
 457              	.LBB352:
 222:Include/benchmark.h ****     return 0;
 458              		.loc 3 222 5 is_stmt 1 discriminator 1 view .LVU107
 459 006c 2C3094E5 		ldr	r3, [r4, #44]
 460 0070 080013E3 		tst	r3, #8
 461 0074 FCFFFF0A 		beq	.L34
 222:Include/benchmark.h ****     return 0;
 462              		.loc 3 222 5 discriminator 2 view .LVU108
 463              	.LBE352:
 464              	.LBE355:
 372:Include/benchmark.h ****     {
 465              		.loc 3 372 23 is_stmt 0 discriminator 1 view .LVU109
 466 0078 020055E1 		cmp	r5, r2
 467              	.LBB356:
 468              	.LBB353:
 222:Include/benchmark.h ****     return 0;
 469              		.loc 3 222 5 discriminator 2 view .LVU110
 470 007c 301084E5 		str	r1, [r4, #48]
 222:Include/benchmark.h ****     return 0;
 471              		.loc 3 222 5 is_stmt 1 view .LVU111
 223:Include/benchmark.h **** }
 472              		.loc 3 223 5 view .LVU112
ARM GAS  C:\Users\even\AppData\Local\Temp\ccu0RqlP.s 			page 24


 473              	.LBE353:
 474              	.LBE356:
 372:Include/benchmark.h ****     {
 475              		.loc 3 372 33 discriminator 2 view .LVU113
 476              	.LVL24:
 372:Include/benchmark.h ****     {
 477              		.loc 3 372 23 discriminator 1 view .LVU114
 478 0080 F6FFFF1A 		bne	.L35
 479              	.LVL25:
 480              	.L33:
 387:Include/benchmark.h **** }
 481              		.loc 3 387 5 view .LVU115
 387:Include/benchmark.h **** }
 482              		.loc 3 387 5 is_stmt 0 view .LVU116
 483              	.LBE358:
 484              	.LBE365:
 138:Source/rme_benchmark.c **** 		start=get_time();
 485              		.loc 1 138 3 is_stmt 1 view .LVU117
 486              	.LBB366:
 487              	.LBI359:
 391:Include/benchmark.h **** {
 488              		.loc 3 391 7 view .LVU118
 489              	.LBB362:
 393:Include/benchmark.h **** 	temp=RME_A7A_REG(&RME_A7A_GTWD_GTCR0);
 490              		.loc 3 393 2 view .LVU119
 394:Include/benchmark.h **** 	return temp;
 491              		.loc 3 394 2 view .LVU120
 394:Include/benchmark.h **** 	return temp;
 492              		.loc 3 394 6 is_stmt 0 view .LVU121
 493 0084 00C297E5 		ldr	ip, [r7, #512]
 494              	.LVL26:
 495              		.loc 3 395 2 is_stmt 1 view .LVU122
 496              		.loc 3 395 2 is_stmt 0 view .LVU123
 497              	.LBE362:
 498              	.LBE366:
 499              	.LBB367:
 500              	.LBB368:
 229:Include/sys.h ****                    0U,
 501              		.loc 2 229 12 view .LVU124
 502 0088 0030A0E3 		mov	r3, #0
 503 008c 0120A0E3 		mov	r2, #1
 504 0090 0D10A0E3 		mov	r1, #13
 505 0094 0208A0E3 		mov	r0, #131072
 506              	.LBE368:
 507              	.LBE367:
 508              		.loc 1 138 8 discriminator 1 view .LVU125
 509 0098 00C086E5 		str	ip, [r6]
 139:Source/rme_benchmark.c **** 		RME_Sig_Snd(RME_BOOT_SIG_BENCH);
 510              		.loc 1 139 3 is_stmt 1 discriminator 1 view .LVU126
 511              	.LVL27:
 512              	.LBB371:
 513              	.LBI367:
 227:Include/sys.h **** {
 514              		.loc 2 227 7 view .LVU127
 515              	.LBB369:
 229:Include/sys.h ****                    0U,
 516              		.loc 2 229 5 view .LVU128
ARM GAS  C:\Users\even\AppData\Local\Temp\ccu0RqlP.s 			page 25


 229:Include/sys.h ****                    0U,
 517              		.loc 2 229 12 is_stmt 0 view .LVU129
 518 009c FEFFFFEB 		bl	RME_Svc
 519              	.LVL28:
 520              		.loc 2 233 23 is_stmt 1 view .LVU130
 521              		.loc 2 233 23 is_stmt 0 view .LVU131
 522              	.LBE369:
 523              	.LBE371:
 135:Source/rme_benchmark.c **** 	{
 524              		.loc 1 135 7 is_stmt 1 view .LVU132
 525              	.LBB372:
 526              	.LBB370:
 229:Include/sys.h ****                    0U,
 527              		.loc 2 229 12 is_stmt 0 view .LVU133
 528 00a0 ECFFFFEA 		b	.L30
 529              	.L48:
 530              		.align	2
 531              	.L47:
 532 00a4 FF000000 		.word	.LC1+255
 533              	.LBE370:
 534              	.LBE372:
 535              		.cfi_endproc
 536              	.LFE28:
 538              		.section	.text.RME_Inv_test_fuction,"ax",%progbits
 539              		.align	2
 540              		.global	RME_Inv_test_fuction
 541              		.syntax unified
 542              		.arm
 544              	RME_Inv_test_fuction:
 545              	.LVL29:
 546              	.LFB36:
 140:Source/rme_benchmark.c **** 	}
 141:Source/rme_benchmark.c **** 
 142:Source/rme_benchmark.c **** }
 143:Source/rme_benchmark.c **** 
 144:Source/rme_benchmark.c **** void RME_Diff_Prc_Thd_Sig_Test_Thd_recv(void) // high prio 5
 145:Source/rme_benchmark.c **** {
 146:Source/rme_benchmark.c **** 	USR_DBG_S("\r\nEntering diff receive thread!");
 147:Source/rme_benchmark.c **** 
 148:Source/rme_benchmark.c **** 	while(1)
 149:Source/rme_benchmark.c **** 	{
 150:Source/rme_benchmark.c **** 		if(RME_Sig_Rcv(RME_BOOT_SIG_BENCH,RME_RCV_BS)!=1)
 151:Source/rme_benchmark.c **** 		{
 152:Source/rme_benchmark.c **** 			USR_DBG_S("\r\nReceived wrong number!");
 153:Source/rme_benchmark.c **** 			while(1);
 154:Source/rme_benchmark.c **** 		}
 155:Source/rme_benchmark.c **** 		end=get_time();
 156:Source/rme_benchmark.c **** 		USR_DBG_S("\r\nReceived!");
 157:Source/rme_benchmark.c **** 		USR_DBG_S("\r\n diff prc sig send take time");
 158:Source/rme_benchmark.c **** 		USR_DBG_I((end-start)*2);
 159:Source/rme_benchmark.c **** 	}
 160:Source/rme_benchmark.c **** }
 161:Source/rme_benchmark.c **** 
 162:Source/rme_benchmark.c **** 
 163:Source/rme_benchmark.c **** 
 164:Source/rme_benchmark.c **** /* Description : The thread for testing same-process thread signal send and receive performance.
 165:Source/rme_benchmark.c **** Input       : None.
ARM GAS  C:\Users\even\AppData\Local\Temp\ccu0RqlP.s 			page 26


 166:Source/rme_benchmark.c **** Output      : None.
 167:Source/rme_benchmark.c **** Return      : None.
 168:Source/rme_benchmark.c **** ******************************************************************************/
 169:Source/rme_benchmark.c **** void RME_Same_Prc_Thd_Sig_Test_Thd_main_nouse(ptr_t TID)
 170:Source/rme_benchmark.c **** {
 171:Source/rme_benchmark.c **** 	USR_DBG_S("\r\n");
 172:Source/rme_benchmark.c **** 	USR_DBG_S("\r\n/****************");
 173:Source/rme_benchmark.c **** 	USR_DBG_S("begin RME_Same_Prc_Thd_Sig_Test_Thd_main");
 174:Source/rme_benchmark.c **** 	USR_DBG_S("****************/");
 175:Source/rme_benchmark.c **** 	USR_DBG_S("\r\nHello this is thread main");
 176:Source/rme_benchmark.c **** 	ret_t Retval;
 177:Source/rme_benchmark.c **** 
 178:Source/rme_benchmark.c **** 
 179:Source/rme_benchmark.c **** 	/* send the begin signal */
 180:Source/rme_benchmark.c **** 	RME_Sig_Snd(RME_BOOT_SIG_BENCH);
 181:Source/rme_benchmark.c **** 	RME_Thd_Swt(RME_BOOT_BENCH_SEN_THD,0);
 182:Source/rme_benchmark.c **** 
 183:Source/rme_benchmark.c **** 	while(1);
 184:Source/rme_benchmark.c **** }
 185:Source/rme_benchmark.c **** /* Function:RME_Same_Prc_Thd_Switch_Testinit *************************************
 186:Source/rme_benchmark.c **** Description : The same-process thread signal send and receive test code.
 187:Source/rme_benchmark.c **** Input       : None.
 188:Source/rme_benchmark.c **** Output      : None.
 189:Source/rme_benchmark.c **** Return      : None.
 190:Source/rme_benchmark.c **** ******************************************************************************/
 191:Source/rme_benchmark.c **** void RME_Same_Prc_Thd_Sig_Testinit(void)
 192:Source/rme_benchmark.c **** {
 193:Source/rme_benchmark.c **** 	ret_t Retval;
 194:Source/rme_benchmark.c **** 
 195:Source/rme_benchmark.c **** 	/* create a signal end point */
 196:Source/rme_benchmark.c **** 	Retval=RME_Sig_Crt(RME_BOOT_INIT_CPT,RME_BOOT_SIG_BENCH);
 197:Source/rme_benchmark.c **** 	USR_DBG_S("\r\ncreate a signal end point      retval= ");
 198:Source/rme_benchmark.c **** 	USR_DBG_I(Retval);
 199:Source/rme_benchmark.c **** 	/* create signal test thread */
 200:Source/rme_benchmark.c **** 	//void RME_Thd_Create(cid_t Cap_Thd,ptr_t Tid,ptr_t Prc,ptr_t Entry,ptr_t Raddr,cid_t Cap_Sig,ptr_
 201:Source/rme_benchmark.c **** 	RME_Thd_Create(RME_BOOT_INIT_PRC,RME_BOOT_BENCH_RCV_THD,RME_TID_4,5,(ptr_t)RME_Same_Prc_Thd_Sig_Te
 202:Source/rme_benchmark.c ****                    Cur_addr,RME_BOOT_SIG_BENCH,RME_THD_INF_TIME,(ptr_t)&RME_Stack3[2000]);
 203:Source/rme_benchmark.c **** 	Cur_addr+=512;
 204:Source/rme_benchmark.c **** 	RME_Thd_Create(RME_BOOT_INIT_PRC,RME_BOOT_BENCH_SEN_THD,RME_TID_3,4,(ptr_t)RME_Same_Prc_Thd_Sig_Te
 205:Source/rme_benchmark.c **** 				   Cur_addr,RME_BOOT_SIG_BENCH,RME_THD_INF_TIME,(ptr_t)&RME_Stack2[2000]);
 206:Source/rme_benchmark.c **** 	Cur_addr+=512;
 207:Source/rme_benchmark.c **** }
 208:Source/rme_benchmark.c **** 
 209:Source/rme_benchmark.c **** 
 210:Source/rme_benchmark.c **** void RME_Diff_Prc_Thd_Sig_Testinit(void)
 211:Source/rme_benchmark.c **** {
 212:Source/rme_benchmark.c **** 	ret_t Retval;
 213:Source/rme_benchmark.c **** 	//Cur_addr=RME_BOOT_BENCH_PGT_RADDR;
 214:Source/rme_benchmark.c **** 	/* create a signal end point */
 215:Source/rme_benchmark.c **** 	Retval=RME_Sig_Crt(RME_BOOT_INIT_CPT,RME_BOOT_SIG_BENCH);
 216:Source/rme_benchmark.c **** 	USR_DBG_S("\r\ncreate a signal end point      retval= ");
 217:Source/rme_benchmark.c **** 	USR_DBG_I(Retval);
 218:Source/rme_benchmark.c **** 	/* create signal test thread */
 219:Source/rme_benchmark.c **** 	//void RME_Thd_Create(cid_t Cap_Thd,ptr_t Tid,ptr_t Prc,ptr_t Entry,ptr_t Raddr,cid_t Cap_Sig,ptr_
 220:Source/rme_benchmark.c **** 	RME_Thd_Create(RME_BOOT_INIT_PRC,RME_BOOT_BENCH_RCV_THD,RME_TID_4,5,(ptr_t)RME_Diff_Prc_Thd_Sig_Te
 221:Source/rme_benchmark.c ****                    Cur_addr,RME_BOOT_SIG_BENCH,RME_THD_INF_TIME,(ptr_t)&RME_Stack3[2000]);
 222:Source/rme_benchmark.c **** 	Cur_addr=RME_BOOT_BENCH_PGT_RADDR;
ARM GAS  C:\Users\even\AppData\Local\Temp\ccu0RqlP.s 			page 27


 223:Source/rme_benchmark.c **** 
 224:Source/rme_benchmark.c **** 	    ptr_t Count;
 225:Source/rme_benchmark.c **** 
 226:Source/rme_benchmark.c **** 
 227:Source/rme_benchmark.c **** 		USR_DBG_S(" \r\nCur_addr= ");
 228:Source/rme_benchmark.c **** 	    USR_DBG_H(Cur_addr);
 229:Source/rme_benchmark.c **** 		Retval=RME_Pgt_Crt(RME_BOOT_INIT_CPT,RME_BOOT_INIT_KOM,RME_BOOT_BENCH_PGT,
 230:Source/rme_benchmark.c **** 				RME_BOOT_BENCH_PGT_RADDR,0x00000000U,RME_PGT_TOP,RME_PGT_SIZE_1M,RME_PGT_NUM_4K);
 231:Source/rme_benchmark.c **** 
 232:Source/rme_benchmark.c **** 		USR_DBG_S("\r\ncreate rcv page table  retval= ");
 233:Source/rme_benchmark.c **** 		USR_DBG_I(Retval);
 234:Source/rme_benchmark.c **** 
 235:Source/rme_benchmark.c **** 		// add page to benchmark pgt
 236:Source/rme_benchmark.c **** 		for(Count=0U;Count<0x400U;Count++)
 237:Source/rme_benchmark.c **** 		    {
 238:Source/rme_benchmark.c **** 			Retval=RME_Pgt_Add(RME_BOOT_BENCH_PGT,Count,RME_PGT_ALL_DYN,
 239:Source/rme_benchmark.c **** 											 RME_BOOT_INIT_PGT,
 240:Source/rme_benchmark.c **** 											 Count,
 241:Source/rme_benchmark.c **** 											 0);
 242:Source/rme_benchmark.c **** 			    /*USR_DBG_S("\r\nadd page to benchmark pgt  retval= ");
 243:Source/rme_benchmark.c **** 				USR_DBG_I(Retval);*/
 244:Source/rme_benchmark.c **** 		    }
 245:Source/rme_benchmark.c **** 			/* Device memory 1, 512MiB 0x40000000 -> 0x40000000 */
 246:Source/rme_benchmark.c **** 		    for(Count=0U;Count<0x200U;Count++)
 247:Source/rme_benchmark.c **** 		    {
 248:Source/rme_benchmark.c **** 		    	Retval=RME_Pgt_Add(RME_BOOT_BENCH_PGT,(Count+0x400U),
 249:Source/rme_benchmark.c **** 											 RME_PGT_READ|RME_PGT_WRITE,
 250:Source/rme_benchmark.c **** 											 RME_BOOT_INIT_PGT,
 251:Source/rme_benchmark.c **** 											 (Count+0x400U),
 252:Source/rme_benchmark.c **** 											 0);
 253:Source/rme_benchmark.c **** 				/*USR_DBG_S("\r\nadd page to benchmark pgt  retval= ");
 254:Source/rme_benchmark.c **** 							USR_DBG_I(Retval);*/
 255:Source/rme_benchmark.c **** 		    }
 256:Source/rme_benchmark.c **** 
 257:Source/rme_benchmark.c **** 		    /* Device memory 2, 512MiB 0x60000000 -> 0xE0000000 */
 258:Source/rme_benchmark.c **** 		    for(Count=0U;Count<0x200U;Count++)
 259:Source/rme_benchmark.c **** 		    {
 260:Source/rme_benchmark.c **** 		    	Retval=RME_Pgt_Add(RME_BOOT_BENCH_PGT,(Count+0x600U),
 261:Source/rme_benchmark.c **** 		    								 RME_PGT_READ|RME_PGT_WRITE,
 262:Source/rme_benchmark.c **** 											 RME_BOOT_INIT_PGT,
 263:Source/rme_benchmark.c **** 											 (Count+0x600U),
 264:Source/rme_benchmark.c **** 											 0);
 265:Source/rme_benchmark.c **** 				/*USR_DBG_S("\r\nadd page to benchmark pgt  retval= ");
 266:Source/rme_benchmark.c **** 										USR_DBG_I(Retval);*/
 267:Source/rme_benchmark.c **** 		    }
 268:Source/rme_benchmark.c **** 		    USR_DBG_S("\r\nFirst section's first entry ");
 269:Source/rme_benchmark.c **** 		    USR_DBG_H(RME_A7A_REG(Cur_addr+RME_KOM_VA_BASE));
 270:Source/rme_benchmark.c **** 		    USR_DBG_S(" @ ");
 271:Source/rme_benchmark.c **** 		    USR_DBG_H(Cur_addr+RME_KOM_VA_BASE);
 272:Source/rme_benchmark.c **** 
 273:Source/rme_benchmark.c **** 		    USR_DBG_S("\r\nFirst section's 0x080th entry ");
 274:Source/rme_benchmark.c **** 		    USR_DBG_H(RME_A7A_REG(Cur_addr+0x080*RME_WORD_BYTE+RME_KOM_VA_BASE));
 275:Source/rme_benchmark.c **** 		    USR_DBG_S(" @ ");
 276:Source/rme_benchmark.c **** 		    USR_DBG_H(Cur_addr+0x080*RME_WORD_BYTE+RME_KOM_VA_BASE);
 277:Source/rme_benchmark.c **** 
 278:Source/rme_benchmark.c **** 		    USR_DBG_S("\r\nSecond section's first entry ");
 279:Source/rme_benchmark.c **** 		    USR_DBG_H(RME_A7A_REG(Cur_addr+0x400*RME_WORD_BYTE+RME_KOM_VA_BASE));
ARM GAS  C:\Users\even\AppData\Local\Temp\ccu0RqlP.s 			page 28


 280:Source/rme_benchmark.c **** 		    USR_DBG_S(" @ ");
 281:Source/rme_benchmark.c **** 		    USR_DBG_H(Cur_addr+0x400*RME_WORD_BYTE+RME_KOM_VA_BASE);
 282:Source/rme_benchmark.c **** 
 283:Source/rme_benchmark.c **** 		    USR_DBG_S("\r\nThird section's first entry ");
 284:Source/rme_benchmark.c **** 		    USR_DBG_H(RME_A7A_REG(Cur_addr+0x600*RME_WORD_BYTE+RME_KOM_VA_BASE));
 285:Source/rme_benchmark.c **** 		    USR_DBG_S(" @ ");
 286:Source/rme_benchmark.c **** 		    USR_DBG_H(Cur_addr+0x600*RME_WORD_BYTE+RME_KOM_VA_BASE);
 287:Source/rme_benchmark.c **** 
 288:Source/rme_benchmark.c **** 		    /*USR_DBG_S("\r\nKernel pgtbl's 80th entry ");
 289:Source/rme_benchmark.c **** 		    USR_DBG_H(RME_A7A_REG(((ptr_t)(&__RME_A7A_Kern_Pgt))+0x080*RME_WORD_BYTE));
 290:Source/rme_benchmark.c **** 		    USR_DBG_S(" @ ");
 291:Source/rme_benchmark.c **** 		    USR_DBG_H(((ptr_t)(&__RME_A7A_Kern_Pgt))+0x080*RME_WORD_BYTE);*/
 292:Source/rme_benchmark.c **** 
 293:Source/rme_benchmark.c **** 		// create benchmark prc
 294:Source/rme_benchmark.c **** 		    Retval=RME_Prc_Crt(RME_BOOT_INIT_CPT,RME_BOOT_BENCH_PRC,RME_BOOT_INIT_CPT,
 295:Source/rme_benchmark.c **** 		    				   RME_BOOT_BENCH_PGT);
 296:Source/rme_benchmark.c **** 		    USR_DBG_S("\r\n create benchmark prc  retval= ");
 297:Source/rme_benchmark.c **** 		    						USR_DBG_I(Retval);
 298:Source/rme_benchmark.c **** 
 299:Source/rme_benchmark.c **** 		    		// create new thread
 300:Source/rme_benchmark.c **** 
 301:Source/rme_benchmark.c **** 	  /*RME_Thd_Create(RME_BOOT_BENCH_PRC,RME_BOOT_BENCH_THD,RME_TID_4,0,
 302:Source/rme_benchmark.c **** 		    		(ptr_t)RME_Same_Prc_Thd_Switch_Test_Thd,
 303:Source/rme_benchmark.c **** 					RME_BOOT_BENCH_KOM_FRONTIER,
 304:Source/rme_benchmark.c **** 					RME_CID_NULL,RME_THD_INF_TIME,
 305:Source/rme_benchmark.c **** 					(ptr_t)&RME_Stack3[2000]);*/
 306:Source/rme_benchmark.c **** 		    						Cur_addr=RME_BOOT_BENCH_KOM_FRONTIER+512;
 307:Source/rme_benchmark.c **** 		    						USR_DBG_S(" \r\nCur_addr= ");
 308:Source/rme_benchmark.c **** 		    							    USR_DBG_H(Cur_addr);
 309:Source/rme_benchmark.c **** 		 RME_Thd_Create(RME_BOOT_BENCH_PRC,RME_BOOT_BENCH_SEN_THD,RME_TID_3,4,(ptr_t)RME_Diff_Prc_Thd_Sig
 310:Source/rme_benchmark.c **** 	  				   Cur_addr,RME_BOOT_SIG_BENCH,RME_THD_INF_TIME,(ptr_t)&RME_Stack2[2000]);
 311:Source/rme_benchmark.c **** 	  	  	  	  	 USR_DBG_S("\r\n create send thd  retval= ");
 312:Source/rme_benchmark.c **** 	  	  	  	  	 USR_DBG_I(Retval);
 313:Source/rme_benchmark.c **** 
 314:Source/rme_benchmark.c **** 		    		// switch to new prc
 315:Source/rme_benchmark.c **** 		    	    Retval=RME_Thd_Swt(RME_BOOT_BENCH_SEN_THD,0);
 316:Source/rme_benchmark.c **** 	  	  	  	  	 while(1);
 317:Source/rme_benchmark.c **** 
 318:Source/rme_benchmark.c **** }
 319:Source/rme_benchmark.c **** 
 320:Source/rme_benchmark.c **** /* Function:RME_Same_Prc_Thd_Switch_Test *************************************
 321:Source/rme_benchmark.c **** Description : The same-process thread switch test code.
 322:Source/rme_benchmark.c **** Input       : None.
 323:Source/rme_benchmark.c **** Output      : None.
 324:Source/rme_benchmark.c **** Return      : None.
 325:Source/rme_benchmark.c **** ******************************************************************************/
 326:Source/rme_benchmark.c **** void RME_Same_Prc_Thd_Switch_Test(void)
 327:Source/rme_benchmark.c **** {
 328:Source/rme_benchmark.c **** 	/*USR_DBG_S("\r\n/****************");
 329:Source/rme_benchmark.c **** 	USR_DBG_S("begin RME_Same_Prc_Thd_Switch_Test");
 330:Source/rme_benchmark.c ****     /* Intra-process thread switching time */
 331:Source/rme_benchmark.c ****     ret_t Retval;
 332:Source/rme_benchmark.c ****     cnt_t Count;
 333:Source/rme_benchmark.c ****     ptr_t Stack_Addr;
 334:Source/rme_benchmark.c ****     ptr_t Temp;
 335:Source/rme_benchmark.c ****     /* Initialize the thread's stack before entering it */
 336:Source/rme_benchmark.c ****     Stack_Addr=(ptr_t)&RME_Stack1[2000];/* _RME_Stack_Init((ptr_t)(&RME_Stack[2047]),
ARM GAS  C:\Users\even\AppData\Local\Temp\ccu0RqlP.s 			page 29


 337:Source/rme_benchmark.c ****                                (ptr_t)RME_Thd_Stub,
 338:Source/rme_benchmark.c ****                                1, 2, 3, 4); */
 339:Source/rme_benchmark.c **** 
 340:Source/rme_benchmark.c ****     /*USR_DBG_S("\r\n(ptr_t)(&RME_Stack[2047])= ");
 341:Source/rme_benchmark.c ****     USR_DBG_H((ptr_t)(&RME_Stack1[2047]));
 342:Source/rme_benchmark.c ****     USR_DBG_S("\r\nInitialize the thread's stack Stack_Addr= ");
 343:Source/rme_benchmark.c ****     USR_DBG_H(Stack_Addr);*/
 344:Source/rme_benchmark.c **** 
 345:Source/rme_benchmark.c ****     /* There are still many bugs in the kernel. Need a white-box test to guarantee
 346:Source/rme_benchmark.c ****      * that it is free of bugs. Find a scheme to do that */
 347:Source/rme_benchmark.c ****     /*Retval=RME_CAP_OP(RME_SVC_THD_CRT,RME_BOOT_INIT_CPT,
 348:Source/rme_benchmark.c ****                       RME_PARAM_D1(RME_BOOT_INIT_KOM)|RME_PARAM_D0(RME_BOOT_BENCH_THD),
 349:Source/rme_benchmark.c ****                       RME_PARAM_D1(RME_BOOT_INIT_PRC)|RME_PARAM_D0(31),
 350:Source/rme_benchmark.c ****                       RME_BOOT_BENCH_KOM_FRONTIER);*/
 351:Source/rme_benchmark.c ****     Retval=RME_Thd_Crt(RME_BOOT_INIT_CPT,RME_BOOT_INIT_KOM,RME_BOOT_BENCH_THD,
 352:Source/rme_benchmark.c ****                        RME_BOOT_INIT_PRC,RME_THD_PRIO_MAX,RME_BOOT_BENCH_KOM_FRONTIER,0);
 353:Source/rme_benchmark.c ****     //USR_DBG_S("\r\ncreate a thread      retval= ");
 354:Source/rme_benchmark.c ****     //USR_DBG_I(Retval);
 355:Source/rme_benchmark.c **** 
 356:Source/rme_benchmark.c ****     /* Bind the thread to the processor */
 357:Source/rme_benchmark.c ****     /*Retval=RME_CAP_OP(RME_SVC_THD_SCHED_BIND,RME_BOOT_BENCH_THD,
 358:Source/rme_benchmark.c ****     		          RME_PARAM_D1(RME_BOOT_INIT_THD)|RME_PARAM_D0(RME_CID_NULL),
 359:Source/rme_benchmark.c **** 					  RME_PARAM_D1(RME_TID_2)|RME_PARAM_D0(RME_BOOT_INIT_PRC),
 360:Source/rme_benchmark.c **** 					  RME_BOOT_HYPER_KOM_VADDR);*/
 361:Source/rme_benchmark.c ****     Retval=RME_Thd_Sched_Bind(RME_BOOT_BENCH_THD,RME_BOOT_INIT_THD,RME_CID_NULL,
 362:Source/rme_benchmark.c ****                               RME_TID_2,0,RME_BOOT_HYPER_KOM_VADDR);
 363:Source/rme_benchmark.c ****     //USR_DBG_S("\r\nBind the thread to the processor retval= ");
 364:Source/rme_benchmark.c ****     //USR_DBG_I(Retval);
 365:Source/rme_benchmark.c ****     extern void RME_Deadloop(void);
 366:Source/rme_benchmark.c ****     /* Set the execution information */
 367:Source/rme_benchmark.c ****     /*Retval=RME_CAP_OP(RME_SVC_THD_EXEC_SET,RME_BOOT_BENCH_THD,
 368:Source/rme_benchmark.c **** 	         	 	 (ptr_t)RME_Same_Prc_Thd_Switch_Test_Thd,
 369:Source/rme_benchmark.c ****     		         //(ptr_t)RME_Deadloop,
 370:Source/rme_benchmark.c **** 					 Stack_Addr,RME_TID_2);*/
 371:Source/rme_benchmark.c ****     Retval=RME_Thd_Exec_Set(RME_BOOT_BENCH_THD,(ptr_t)RME_Same_Prc_Thd_Switch_Test_Thd,Stack_Addr,R
 372:Source/rme_benchmark.c ****     //RME_Stack[2000]=1234;
 373:Source/rme_benchmark.c ****     //USR_DBG_S("\r\nSet the execution information retval= ");
 374:Source/rme_benchmark.c ****     //USR_DBG_I(Retval);
 375:Source/rme_benchmark.c ****     //USR_DBG_S("\r\n");
 376:Source/rme_benchmark.c ****     /* Delegate some timeslice to it */
 377:Source/rme_benchmark.c ****     /*Retval=RME_CAP_OP(RME_SVC_THD_TIME_XFER,RME_BOOT_BENCH_THD,
 378:Source/rme_benchmark.c ****                       RME_BOOT_BENCH_THD,
 379:Source/rme_benchmark.c ****                       RME_BOOT_INIT_THD,
 380:Source/rme_benchmark.c ****                       10000000);*/
 381:Source/rme_benchmark.c ****     Retval=RME_Thd_Time_Xfer(RME_BOOT_BENCH_THD,RME_BOOT_INIT_THD,RME_THD_INF_TIME);
 382:Source/rme_benchmark.c **** 
 383:Source/rme_benchmark.c ****     //Retval=RME_Thd_Time_Xfer(RME_BOOT_BENCH_THD,RME_BOOT_INIT_THD,1000);
 384:Source/rme_benchmark.c ****     //USR_DBG_S("\r\nDelegate some timeslice to it retval= ");
 385:Source/rme_benchmark.c ****          //USR_DBG_I(Retval);
 386:Source/rme_benchmark.c **** 
 387:Source/rme_benchmark.c ****     Retval=RME_Thd_Swt(RME_BOOT_BENCH_THD,0);
 388:Source/rme_benchmark.c ****     /*USR_DBG_S("\r\nTry to switch to that thread - should fail  retval= ");
 389:Source/rme_benchmark.c ****     USR_DBG_I(Retval);*/
 390:Source/rme_benchmark.c ****     //_RME_Tsc_Init();
 391:Source/rme_benchmark.c ****     //for(Count=0;Count<10000;Count++)
 392:Source/rme_benchmark.c ****     /*start=get_time();
 393:Source/rme_benchmark.c **** 
ARM GAS  C:\Users\even\AppData\Local\Temp\ccu0RqlP.s 			page 30


 394:Source/rme_benchmark.c ****     RME_Thd_Swt(RME_BOOT_BENCH_THD,0);
 395:Source/rme_benchmark.c ****     end=get_time();
 396:Source/rme_benchmark.c ****     USR_DBG_S("\r\n swt 1 times time= ");
 397:Source/rme_benchmark.c ****     USR_DBG_I(end-start);*/
 398:Source/rme_benchmark.c **** 
 399:Source/rme_benchmark.c **** 
 400:Source/rme_benchmark.c ****     start=get_time();
 401:Source/rme_benchmark.c ****     for(Count=0;Count<10000;Count++)
 402:Source/rme_benchmark.c ****     {
 403:Source/rme_benchmark.c ****     	//start=get_time();
 404:Source/rme_benchmark.c **** 
 405:Source/rme_benchmark.c ****     	    RME_Thd_Swt(RME_BOOT_BENCH_THD,0);
 406:Source/rme_benchmark.c ****     	    /*end=get_time();
 407:Source/rme_benchmark.c ****     	    USR_DBG_S("\r\n swt 1 times time= ");
 408:Source/rme_benchmark.c ****     	    USR_DBG_I(end-start);*/
 409:Source/rme_benchmark.c **** 
 410:Source/rme_benchmark.c ****     }
 411:Source/rme_benchmark.c ****     
 412:Source/rme_benchmark.c ****     end=get_time();
 413:Source/rme_benchmark.c ****     USR_DBG_S("\r\n swt 10000 times time avg = ");
 414:Source/rme_benchmark.c ****     USR_DBG_I((end-start)/10000);
 415:Source/rme_benchmark.c **** 
 416:Source/rme_benchmark.c ****     USR_DBG_S("\r\ntest done ");
 417:Source/rme_benchmark.c **** 
 418:Source/rme_benchmark.c ****     // test sig_snd/sig_rcv
 419:Source/rme_benchmark.c **** 
 420:Source/rme_benchmark.c **** 
 421:Source/rme_benchmark.c **** 
 422:Source/rme_benchmark.c ****     while(1);
 423:Source/rme_benchmark.c **** }
 424:Source/rme_benchmark.c **** /* End Function:RME_Same_Prc_Thd_Switch_Test ********************************/
 425:Source/rme_benchmark.c **** 
 426:Source/rme_benchmark.c **** 
 427:Source/rme_benchmark.c **** 
 428:Source/rme_benchmark.c **** /* Function:RME_Diff_Prc_Thd_Switch_Test *************************************
 429:Source/rme_benchmark.c **** Description : The same-process thread switch test code.
 430:Source/rme_benchmark.c **** Input       : None.
 431:Source/rme_benchmark.c **** Output      : None.
 432:Source/rme_benchmark.c **** Return      : None.
 433:Source/rme_benchmark.c **** ******************************************************************************/
 434:Source/rme_benchmark.c **** void RME_Diff_Prc_Thd_Switch_Test_noused(void)
 435:Source/rme_benchmark.c **** {
 436:Source/rme_benchmark.c ****     /* Intra-process thread switching time */
 437:Source/rme_benchmark.c ****     ret_t Retval;
 438:Source/rme_benchmark.c ****     cnt_t Count;
 439:Source/rme_benchmark.c ****     ptr_t Stack_Addr;
 440:Source/rme_benchmark.c ****     ptr_t Temp;
 441:Source/rme_benchmark.c ****     ptr_t Frontier;
 442:Source/rme_benchmark.c ****     
 443:Source/rme_benchmark.c ****     Frontier=RME_BOOT_BENCH_KOM_FRONTIER;
 444:Source/rme_benchmark.c ****     /* Initialize the thread's stack before entering it */
 445:Source/rme_benchmark.c ****     Stack_Addr=_RME_Stack_Init((ptr_t)(&RME_Stack1[2047]),
 446:Source/rme_benchmark.c ****                                (ptr_t)RME_Thd_Stub,
 447:Source/rme_benchmark.c ****                                1, 2, 3, 4);
 448:Source/rme_benchmark.c ****     
 449:Source/rme_benchmark.c ****     /* Create the page table for the whole address space range */
 450:Source/rme_benchmark.c ****     /*Retval=RME_CAP_OP(RME_SVC_PGT_CRT,RME_BOOT_INIT_CPT,
ARM GAS  C:\Users\even\AppData\Local\Temp\ccu0RqlP.s 			page 31


 451:Source/rme_benchmark.c ****                       RME_PARAM_D1(RME_BOOT_INIT_KOM)|RME_PARAM_Q1(RME_BOOT_BENCH_PGT_TOP)|
 452:Source/rme_benchmark.c ****                       RME_PARAM_O1(29)|RME_PARAM_O0(3),
 453:Source/rme_benchmark.c ****                       Frontier,
 454:Source/rme_benchmark.c ****                       1);*/
 455:Source/rme_benchmark.c **** //    Frontier+=;
 456:Source/rme_benchmark.c **** //    /* Create the page table for the SRAM range */
 457:Source/rme_benchmark.c **** //    Retval=RME_CAP_OP(RME_SVC_PGT_CRT,RME_BOOT_INIT_CPT,
 458:Source/rme_benchmark.c **** //                      RME_PARAM_D1(RME_BOOT_INIT_KOM)|RME_PARAM_Q1(RME_BOOT_BENCH_PGT_SRAM)|
 459:Source/rme_benchmark.c **** //                      RME_PARAM_O1(16)|RME_PARAM_O0(3),
 460:Source/rme_benchmark.c **** //                      Frontier,
 461:Source/rme_benchmark.c **** //                      0x20000001);*/
 462:Source/rme_benchmark.c **** //    Frontier+=;
 463:Source/rme_benchmark.c **** //    /* Map the pages into the top-level and the second-level */
 464:Source/rme_benchmark.c **** //    RME_CAP_OP(RME_SVC_PGT_ADD,0,
 465:Source/rme_benchmark.c **** //               RME_PARAM_Q1(RME_BOOT_BENCH_PGT_TOP)|0,
 466:Source/rme_benchmark.c **** //               RME_PARAM_D1(RME_BOOT_INIT_PGT)|0,
 467:Source/rme_benchmark.c **** //               |0)*/
 468:Source/rme_benchmark.c ****                       
 469:Source/rme_benchmark.c ****                   
 470:Source/rme_benchmark.c ****     
 471:Source/rme_benchmark.c ****     
 472:Source/rme_benchmark.c ****     
 473:Source/rme_benchmark.c ****     /*Retval=RME_CAP_OP(RME_SVC_THD_CRT,RME_BOOT_INIT_CPT,
 474:Source/rme_benchmark.c ****                       RME_PARAM_D1(RME_BOOT_INIT_KOM)|RME_PARAM_D0(RME_BOOT_BENCH_THD),
 475:Source/rme_benchmark.c ****                       RME_PARAM_D1(RME_BOOT_INIT_PRC)|RME_PARAM_D0(31),
 476:Source/rme_benchmark.c ****                       RME_BOOT_BENCH_KOM_FRONTIER);*/
 477:Source/rme_benchmark.c ****     
 478:Source/rme_benchmark.c ****     /* Bind the thread to the processor */
 479:Source/rme_benchmark.c ****     /*Retval=RME_CAP_OP(RME_SVC_THD_SCHED_BIND,0,
 480:Source/rme_benchmark.c ****                       RME_BOOT_BENCH_THD,
 481:Source/rme_benchmark.c ****                       RME_BOOT_INIT_THD,
 482:Source/rme_benchmark.c ****                       0);*/
 483:Source/rme_benchmark.c ****     
 484:Source/rme_benchmark.c ****     /* Set the execution information */
 485:Source/rme_benchmark.c ****     /*Retval=RME_CAP_OP(RME_SVC_THD_EXEC_SET,0,
 486:Source/rme_benchmark.c ****                       RME_BOOT_BENCH_THD,
 487:Source/rme_benchmark.c ****                       (ptr_t)RME_Same_Prc_Thd_Switch_Test_Thd,
 488:Source/rme_benchmark.c ****                       Stack_Addr);*/
 489:Source/rme_benchmark.c ****                       
 490:Source/rme_benchmark.c ****     /* Delegate some timeslice to it */
 491:Source/rme_benchmark.c ****     /*Retval=RME_CAP_OP(RME_SVC_THD_TIME_XFER,0,
 492:Source/rme_benchmark.c ****                       RME_BOOT_BENCH_THD,
 493:Source/rme_benchmark.c ****                       RME_BOOT_INIT_THD,
 494:Source/rme_benchmark.c ****                       10000000);*/
 495:Source/rme_benchmark.c ****     
 496:Source/rme_benchmark.c ****     /* Try to switch to that thread - should fail */
 497:Source/rme_benchmark.c ****     /*Retval=RME_CAP_OP(RME_SVC_THD_SWT,0,
 498:Source/rme_benchmark.c ****                       RME_BOOT_BENCH_THD,
 499:Source/rme_benchmark.c ****                       0,
 500:Source/rme_benchmark.c ****                       0);*/
 501:Source/rme_benchmark.c ****     /* Test result: intra-process ctxsw 358cycles/1.657us, frt w/mpu 163cycles/0.754us,
 502:Source/rme_benchmark.c ****     * composite 324. opted max:323
 503:Source/rme_benchmark.c ****     * all:33.0
 504:Source/rme_benchmark.c ****     * empty: 4.09 - 0.409us, most time spent on internals
 505:Source/rme_benchmark.c ****     * w/selections: 7.15 - maybe no need to check frozen cap from the proc.
 506:Source/rme_benchmark.c ****     * w/checkings:10.926 - 317us.
 507:Source/rme_benchmark.c ****     * total:16.57
ARM GAS  C:\Users\even\AppData\Local\Temp\ccu0RqlP.s 			page 32


 508:Source/rme_benchmark.c ****     * 16.2us now, after cleaning up two bad things
 509:Source/rme_benchmark.c ****     * 14.7us after CPUID optimizations. The quiescence hardly worked.
 510:Source/rme_benchmark.c ****     * no cache - 3 times slower, mainly due to the flash. ART does not really help.
 511:Source/rme_benchmark.c ****     * Performance cannot be further optimized anymore without compiler intrinsics.
 512:Source/rme_benchmark.c ****     * Something terribly wrong with systick. 38 second wrapwround
 513:Source/rme_benchmark.c ****     * This configuration, CPU works at 216MHz, correct, but the 
 514:Source/rme_benchmark.c ****     * The TSC is always 8 cycles between reads.
 515:Source/rme_benchmark.c ****     */
 516:Source/rme_benchmark.c ****     for(Count=0;Count<10000;Count++)
 517:Source/rme_benchmark.c ****     {
 518:Source/rme_benchmark.c ****         //Temp=RME_TSC();
 519:Source/rme_benchmark.c ****         /*Retval=RME_CAP_OP(RME_SVC_THD_SWT,0,
 520:Source/rme_benchmark.c ****                           RME_BOOT_BENCH_THD,
 521:Source/rme_benchmark.c ****                           0,
 522:Source/rme_benchmark.c ****                           0);*/
 523:Source/rme_benchmark.c ****         //Temp=RME_TSC()-Temp;
 524:Source/rme_benchmark.c ****         //Time[Count]=Temp-8;
 525:Source/rme_benchmark.c ****     }
 526:Source/rme_benchmark.c **** 
 527:Source/rme_benchmark.c **** 
 528:Source/rme_benchmark.c ****     while(1);
 529:Source/rme_benchmark.c **** }
 530:Source/rme_benchmark.c **** /* End Function:RME_Diff_Prc_Thd_Switch_Test ********************************/
 531:Source/rme_benchmark.c **** 
 532:Source/rme_benchmark.c **** /* Function:RME_Diff_Prc_Switch_Test *************************************
 533:Source/rme_benchmark.c **** Description : The same-process switch test code.
 534:Source/rme_benchmark.c **** Input       : None.
 535:Source/rme_benchmark.c **** Output      : None.
 536:Source/rme_benchmark.c **** Return      : None.
 537:Source/rme_benchmark.c **** ******************************************************************************/
 538:Source/rme_benchmark.c **** void RME_Diff_Prc_Switch_Test(void)
 539:Source/rme_benchmark.c **** {
 540:Source/rme_benchmark.c **** 	// create benchmark page table
 541:Source/rme_benchmark.c **** 	ret_t Retval;
 542:Source/rme_benchmark.c **** 	ptr_t Count;
 543:Source/rme_benchmark.c **** 	Cur_addr=RME_BOOT_BENCH_PGT_RADDR;
 544:Source/rme_benchmark.c **** 
 545:Source/rme_benchmark.c **** 	/*USR_DBG_S(" \r\nCur_addr= ");
 546:Source/rme_benchmark.c ****     USR_DBG_H(Cur_addr);*/
 547:Source/rme_benchmark.c **** 	Retval=RME_Pgt_Crt(RME_BOOT_INIT_CPT,RME_BOOT_INIT_KOM,RME_BOOT_BENCH_PGT,
 548:Source/rme_benchmark.c **** 			    	   Cur_addr,0x00000000U,RME_PGT_TOP,RME_PGT_SIZE_1M,RME_PGT_NUM_4K);
 549:Source/rme_benchmark.c **** 
 550:Source/rme_benchmark.c **** 	/*USR_DBG_S("\r\ncreate benchmark page table  retval= ");
 551:Source/rme_benchmark.c **** 	USR_DBG_I(Retval);*/
 552:Source/rme_benchmark.c **** 
 553:Source/rme_benchmark.c **** 	// add page to benchmark pgt
 554:Source/rme_benchmark.c **** 	for(Count=0U;Count<0x400U;Count++)
 555:Source/rme_benchmark.c **** 	    {
 556:Source/rme_benchmark.c **** 		Retval=RME_Pgt_Add(RME_BOOT_BENCH_PGT,Count,RME_PGT_ALL_DYN,
 557:Source/rme_benchmark.c **** 										 RME_BOOT_INIT_PGT,
 558:Source/rme_benchmark.c **** 										 Count,
 559:Source/rme_benchmark.c **** 										 0);
 560:Source/rme_benchmark.c **** 		    /*USR_DBG_S("\r\nadd page to benchmark pgt  retval= ");
 561:Source/rme_benchmark.c **** 			USR_DBG_I(Retval);*/
 562:Source/rme_benchmark.c **** 	    }
 563:Source/rme_benchmark.c **** 		/* Device memory 1, 512MiB 0x40000000 -> 0x40000000 */
 564:Source/rme_benchmark.c **** 	    for(Count=0U;Count<0x200U;Count++)
ARM GAS  C:\Users\even\AppData\Local\Temp\ccu0RqlP.s 			page 33


 565:Source/rme_benchmark.c **** 	    {
 566:Source/rme_benchmark.c **** 	    	Retval=RME_Pgt_Add(RME_BOOT_BENCH_PGT,(Count+0x400U),
 567:Source/rme_benchmark.c **** 										 RME_PGT_READ|RME_PGT_WRITE,
 568:Source/rme_benchmark.c **** 										 RME_BOOT_INIT_PGT,
 569:Source/rme_benchmark.c **** 										 (Count+0x400U),
 570:Source/rme_benchmark.c **** 										 0);
 571:Source/rme_benchmark.c **** 			/*USR_DBG_S("\r\nadd page to benchmark pgt  retval= ");
 572:Source/rme_benchmark.c **** 						USR_DBG_I(Retval);*/
 573:Source/rme_benchmark.c **** 	    }
 574:Source/rme_benchmark.c **** 
 575:Source/rme_benchmark.c **** 	    /* Device memory 2, 512MiB 0x60000000 -> 0xE0000000 */
 576:Source/rme_benchmark.c **** 	    for(Count=0U;Count<0x200U;Count++)
 577:Source/rme_benchmark.c **** 	    {
 578:Source/rme_benchmark.c **** 	    	Retval=RME_Pgt_Add(RME_BOOT_BENCH_PGT,(Count+0x600U),
 579:Source/rme_benchmark.c **** 	    								 RME_PGT_READ|RME_PGT_WRITE,
 580:Source/rme_benchmark.c **** 										 RME_BOOT_INIT_PGT,
 581:Source/rme_benchmark.c **** 										 (Count+0x600U),
 582:Source/rme_benchmark.c **** 										 0);
 583:Source/rme_benchmark.c **** 			/*USR_DBG_S("\r\nadd page to benchmark pgt  retval= ");
 584:Source/rme_benchmark.c **** 									USR_DBG_I(Retval);*/
 585:Source/rme_benchmark.c **** 	    }
 586:Source/rme_benchmark.c **** 	    /*USR_DBG_S("\r\nFirst section's first entry ");
 587:Source/rme_benchmark.c **** 	    USR_DBG_H(RME_A7A_REG(Cur_addr+RME_KOM_VA_BASE));
 588:Source/rme_benchmark.c **** 	    USR_DBG_S(" @ ");
 589:Source/rme_benchmark.c **** 	    USR_DBG_H(Cur_addr+RME_KOM_VA_BASE);
 590:Source/rme_benchmark.c **** 
 591:Source/rme_benchmark.c **** 	    USR_DBG_S("\r\nFirst section's 0x080th entry ");
 592:Source/rme_benchmark.c **** 	    USR_DBG_H(RME_A7A_REG(Cur_addr+0x080*RME_WORD_BYTE+RME_KOM_VA_BASE));
 593:Source/rme_benchmark.c **** 	    USR_DBG_S(" @ ");
 594:Source/rme_benchmark.c **** 	    USR_DBG_H(Cur_addr+0x080*RME_WORD_BYTE+RME_KOM_VA_BASE);
 595:Source/rme_benchmark.c **** 
 596:Source/rme_benchmark.c **** 	    USR_DBG_S("\r\nSecond section's first entry ");
 597:Source/rme_benchmark.c **** 	    USR_DBG_H(RME_A7A_REG(Cur_addr+0x400*RME_WORD_BYTE+RME_KOM_VA_BASE));
 598:Source/rme_benchmark.c **** 	    USR_DBG_S(" @ ");
 599:Source/rme_benchmark.c **** 	    USR_DBG_H(Cur_addr+0x400*RME_WORD_BYTE+RME_KOM_VA_BASE);
 600:Source/rme_benchmark.c **** 
 601:Source/rme_benchmark.c **** 	    USR_DBG_S("\r\nThird section's first entry ");
 602:Source/rme_benchmark.c **** 	    USR_DBG_H(RME_A7A_REG(Cur_addr+0x600*RME_WORD_BYTE+RME_KOM_VA_BASE));
 603:Source/rme_benchmark.c **** 	    USR_DBG_S(" @ ");
 604:Source/rme_benchmark.c **** 	    USR_DBG_H(Cur_addr+0x600*RME_WORD_BYTE+RME_KOM_VA_BASE);
 605:Source/rme_benchmark.c **** 
 606:Source/rme_benchmark.c **** 	    /*USR_DBG_S("\r\nKernel pgtbl's 80th entry ");
 607:Source/rme_benchmark.c **** 	    USR_DBG_H(RME_A7A_REG(((ptr_t)(&__RME_A7A_Kern_Pgt))+0x080*RME_WORD_BYTE));
 608:Source/rme_benchmark.c **** 	    USR_DBG_S(" @ ");
 609:Source/rme_benchmark.c **** 	    USR_DBG_H(((ptr_t)(&__RME_A7A_Kern_Pgt))+0x080*RME_WORD_BYTE);*/
 610:Source/rme_benchmark.c **** 
 611:Source/rme_benchmark.c **** 	    // create benchmark prc
 612:Source/rme_benchmark.c **** 	    Retval=RME_Prc_Crt(RME_BOOT_INIT_CPT,RME_BOOT_BENCH_PRC,RME_BOOT_INIT_CPT,
 613:Source/rme_benchmark.c **** 	    				   RME_BOOT_BENCH_PGT);
 614:Source/rme_benchmark.c **** 	    /*USR_DBG_S("\r\n create benchmark prc  retval= ");
 615:Source/rme_benchmark.c **** 	    						USR_DBG_I(Retval);*/
 616:Source/rme_benchmark.c **** 
 617:Source/rme_benchmark.c **** 	    		// create new thread
 618:Source/rme_benchmark.c **** 
 619:Source/rme_benchmark.c **** 	    		RME_Thd_Create(RME_BOOT_BENCH_PRC,RME_BOOT_BENCH_THD,RME_TID_4,0,
 620:Source/rme_benchmark.c **** 	    		(ptr_t)RME_Diff_Prc_Thd_Switch_Test_Thd,
 621:Source/rme_benchmark.c **** 				RME_BOOT_BENCH_KOM_FRONTIER,
ARM GAS  C:\Users\even\AppData\Local\Temp\ccu0RqlP.s 			page 34


 622:Source/rme_benchmark.c **** 				RME_CID_NULL,RME_THD_INF_TIME,
 623:Source/rme_benchmark.c **** 				(ptr_t)&RME_Stack3[2000]);
 624:Source/rme_benchmark.c **** 
 625:Source/rme_benchmark.c **** 
 626:Source/rme_benchmark.c **** 	    		// switch to new prc
 627:Source/rme_benchmark.c **** 
 628:Source/rme_benchmark.c **** 	    		start=get_time();
 629:Source/rme_benchmark.c **** 	    		for(Count=0;Count<10000;Count++)
 630:Source/rme_benchmark.c **** 	    		    {
 631:Source/rme_benchmark.c **** 	    				//start=get_time();
 632:Source/rme_benchmark.c **** 	    				Retval=RME_Thd_Swt(RME_BOOT_BENCH_THD,0);
 633:Source/rme_benchmark.c **** 	    				/*end=get_time();
 634:Source/rme_benchmark.c **** 	    				USR_DBG_S("\r\n switch to new prc time= ");
 635:Source/rme_benchmark.c **** 	    				USR_DBG_I(end-start);
 636:Source/rme_benchmark.c **** 	    				/*USR_DBG_S("\r\n swt benchmark prc  retval= ");
 637:Source/rme_benchmark.c **** 	    				USR_DBG_I(Retval);*/
 638:Source/rme_benchmark.c **** 	    		    }
 639:Source/rme_benchmark.c **** 	    	    //calculate time
 640:Source/rme_benchmark.c **** 	    	    end=get_time();
 641:Source/rme_benchmark.c **** 	    	    USR_DBG_S("\r\n switch to new prc 10000 time  = ");
 642:Source/rme_benchmark.c **** 	    	    	    	    USR_DBG_I(end-start);
 643:Source/rme_benchmark.c **** 	    	    USR_DBG_S("\r\n switch to new prc 10000 time avg = ");
 644:Source/rme_benchmark.c **** 	    	    USR_DBG_I((end-start)/10000);
 645:Source/rme_benchmark.c **** 
 646:Source/rme_benchmark.c **** 	    	    /*USR_DBG_S("\r\n switch to new prc  retval= ");
 647:Source/rme_benchmark.c **** 	    	    USR_DBG_I(Retval);*/
 648:Source/rme_benchmark.c **** 	    	    USR_DBG_S("\r\nTest done!");
 649:Source/rme_benchmark.c **** 	    	    while(1);
 650:Source/rme_benchmark.c **** }
 651:Source/rme_benchmark.c **** 
 652:Source/rme_benchmark.c **** void RME_Inv_test_fuction(int param)//
 653:Source/rme_benchmark.c **** {
 547              		.loc 1 653 1 is_stmt 1 view -0
 548              		.cfi_startproc
 549              		@ args = 0, pretend = 0, frame = 0
 550              		@ frame_needed = 0, uses_anonymous_args = 0
 551              		@ link register save eliminated.
 654:Source/rme_benchmark.c **** 	//USR_DBG_S("\r\n inv fuction!");
 655:Source/rme_benchmark.c **** 		//
 656:Source/rme_benchmark.c **** 		RME_Inv_Ret(param);
 552              		.loc 1 656 3 view .LVU135
 553 0000 FEFFFFEA 		b	RME_Inv_Ret
 554              	.LVL30:
 555              		.loc 1 656 3 is_stmt 0 view .LVU136
 556              		.cfi_endproc
 557              	.LFE36:
 559              		.section	.text.__USR_Putchar,"ax",%progbits
 560              		.align	2
 561              		.global	__USR_Putchar
 562              		.syntax unified
 563              		.arm
 565              	__USR_Putchar:
 566              	.LVL31:
 567              	.LFB0:
 221:Include/benchmark.h ****     RME_A7A_PUTCHAR(Char);
 568              		.loc 3 221 1 is_stmt 1 view -0
 569              		.cfi_startproc
ARM GAS  C:\Users\even\AppData\Local\Temp\ccu0RqlP.s 			page 35


 570              		@ args = 0, pretend = 0, frame = 0
 571              		@ frame_needed = 0, uses_anonymous_args = 0
 572              		@ link register save eliminated.
 222:Include/benchmark.h ****     return 0;
 573              		.loc 3 222 5 view .LVU138
 222:Include/benchmark.h ****     return 0;
 574              		.loc 3 222 5 view .LVU139
 222:Include/benchmark.h ****     return 0;
 575              		.loc 3 222 5 is_stmt 0 discriminator 1 view .LVU140
 576 0000 012AA0E3 		mov	r2, #4096
 577 0004 00204EE3 		movt	r2, 57344
 578              	.L51:
 222:Include/benchmark.h ****     return 0;
 579              		.loc 3 222 5 is_stmt 1 discriminator 1 view .LVU141
 580 0008 2C3092E5 		ldr	r3, [r2, #44]
 581 000c 080013E3 		tst	r3, #8
 582 0010 FCFFFF0A 		beq	.L51
 222:Include/benchmark.h ****     return 0;
 583              		.loc 3 222 5 discriminator 2 view .LVU142
 584 0014 300082E5 		str	r0, [r2, #48]
 222:Include/benchmark.h ****     return 0;
 585              		.loc 3 222 5 view .LVU143
 223:Include/benchmark.h **** }
 586              		.loc 3 223 5 view .LVU144
 224:Include/benchmark.h **** /* End Function __USR_Putchar ***************************************************/
 587              		.loc 3 224 1 is_stmt 0 view .LVU145
 588 0018 0000A0E3 		mov	r0, #0
 589              	.LVL32:
 224:Include/benchmark.h **** /* End Function __USR_Putchar ***************************************************/
 590              		.loc 3 224 1 view .LVU146
 591 001c 1EFF2FE1 		bx	lr
 592              		.cfi_endproc
 593              	.LFE0:
 595              		.section	.text.USR_DBG_I,"ax",%progbits
 596              		.align	2
 597              		.global	USR_DBG_I
 598              		.syntax unified
 599              		.arm
 601              	USR_DBG_I:
 602              	.LVL33:
 603              	.LFB1:
 236:Include/benchmark.h ****     cnt_t Num;
 604              		.loc 3 236 1 is_stmt 1 view -0
 605              		.cfi_startproc
 606              		@ args = 0, pretend = 0, frame = 0
 607              		@ frame_needed = 0, uses_anonymous_args = 0
 237:Include/benchmark.h ****     cnt_t Abs;
 608              		.loc 3 237 5 view .LVU148
 238:Include/benchmark.h ****     cnt_t Iter;
 609              		.loc 3 238 5 view .LVU149
 239:Include/benchmark.h ****     cnt_t Count;
 610              		.loc 3 239 5 view .LVU150
 240:Include/benchmark.h ****     cnt_t Div;
 611              		.loc 3 240 5 view .LVU151
 241:Include/benchmark.h **** 
 612              		.loc 3 241 5 view .LVU152
 244:Include/benchmark.h ****     {
ARM GAS  C:\Users\even\AppData\Local\Temp\ccu0RqlP.s 			page 36


 613              		.loc 3 244 5 view .LVU153
 244:Include/benchmark.h ****     {
 614              		.loc 3 244 7 is_stmt 0 view .LVU154
 615 0000 000050E3 		cmp	r0, #0
 236:Include/benchmark.h ****     cnt_t Num;
 616              		.loc 3 236 1 view .LVU155
 617 0004 F0412DE9 		push	{r4, r5, r6, r7, r8, lr}
 618              		.cfi_def_cfa_offset 24
 619              		.cfi_offset 4, -24
 620              		.cfi_offset 5, -20
 621              		.cfi_offset 6, -16
 622              		.cfi_offset 7, -12
 623              		.cfi_offset 8, -8
 624              		.cfi_offset 14, -4
 244:Include/benchmark.h ****     {
 625              		.loc 3 244 7 view .LVU156
 626 0008 3300000A 		beq	.L75
 255:Include/benchmark.h **** 
 627              		.loc 3 255 5 is_stmt 1 view .LVU157
 259:Include/benchmark.h ****     {
 628              		.loc 3 259 5 view .LVU158
 629 000c 0160A0A3 		movge	r6, #1
 272:Include/benchmark.h ****     }
 630              		.loc 3 272 12 is_stmt 0 view .LVU159
 631 0010 00E0A0A3 		movge	lr, #0
 259:Include/benchmark.h ****     {
 632              		.loc 3 259 7 view .LVU160
 633 0014 250000BA 		blt	.L76
 634              	.LVL34:
 635              	.L58:
 276:Include/benchmark.h ****     Div=1;
 636              		.loc 3 276 5 is_stmt 1 view .LVU161
 277:Include/benchmark.h ****     Iter=Abs;
 637              		.loc 3 277 5 view .LVU162
 278:Include/benchmark.h ****     while(1U)
 638              		.loc 3 278 5 view .LVU163
 279:Include/benchmark.h ****     {
 639              		.loc 3 279 5 view .LVU164
 281:Include/benchmark.h ****         Count++;
 640              		.loc 3 281 9 view .LVU165
 281:Include/benchmark.h ****         Count++;
 641              		.loc 3 281 13 is_stmt 0 view .LVU166
 642 0018 CD3C0CE3 		movw	r3, #52429
 282:Include/benchmark.h ****         if(Iter!=0)
 643              		.loc 3 282 14 view .LVU167
 644 001c 0170A0E3 		mov	r7, #1
 281:Include/benchmark.h ****         Count++;
 645              		.loc 3 281 13 view .LVU168
 646 0020 CC3C4CE3 		movt	r3, 52428
 277:Include/benchmark.h ****     Iter=Abs;
 647              		.loc 3 277 8 view .LVU169
 648 0024 0740A0E1 		mov	r4, r7
 281:Include/benchmark.h ****         Count++;
 649              		.loc 3 281 13 view .LVU170
 650 0028 932083E0 		umull	r2, r3, r3, r0
 651              	.LVL35:
 282:Include/benchmark.h ****         if(Iter!=0)
ARM GAS  C:\Users\even\AppData\Local\Temp\ccu0RqlP.s 			page 37


 652              		.loc 3 282 9 is_stmt 1 view .LVU171
 283:Include/benchmark.h ****         {
 653              		.loc 3 283 9 view .LVU172
 283:Include/benchmark.h ****         {
 654              		.loc 3 283 11 is_stmt 0 view .LVU173
 655 002c A331B0E1 		lsrs	r3, r3, #3
 656              	.LVL36:
 283:Include/benchmark.h ****         {
 657              		.loc 3 283 11 view .LVU174
 658 0030 0900000A 		beq	.L60
 281:Include/benchmark.h ****         Count++;
 659              		.loc 3 281 13 view .LVU175
 660 0034 671606E3 		movw	r1, #26215
 661 0038 661646E3 		movt	r1, 26214
 662              	.LVL37:
 663              	.L61:
 287:Include/benchmark.h ****         }
 664              		.loc 3 287 13 is_stmt 1 view .LVU176
 281:Include/benchmark.h ****         Count++;
 665              		.loc 3 281 13 is_stmt 0 view .LVU177
 666 003c 91C3C2E0 		smull	ip, r2, r1, r3
 667 0040 C33FA0E1 		asr	r3, r3, #31
 668              	.LVL38:
 287:Include/benchmark.h ****         }
 669              		.loc 3 287 16 view .LVU178
 670 0044 044184E0 		add	r4, r4, r4, lsl #2
 671              	.LVL39:
 282:Include/benchmark.h ****         if(Iter!=0)
 672              		.loc 3 282 14 view .LVU179
 673 0048 017087E2 		add	r7, r7, #1
 674              	.LVL40:
 287:Include/benchmark.h ****         }
 675              		.loc 3 287 16 view .LVU180
 676 004c 8440A0E1 		lsl	r4, r4, #1
 677              	.LVL41:
 279:Include/benchmark.h ****     {
 678              		.loc 3 279 10 is_stmt 1 view .LVU181
 279:Include/benchmark.h ****     {
 679              		.loc 3 279 5 view .LVU182
 281:Include/benchmark.h ****         Count++;
 680              		.loc 3 281 9 view .LVU183
 282:Include/benchmark.h ****         if(Iter!=0)
 681              		.loc 3 282 9 view .LVU184
 283:Include/benchmark.h ****         {
 682              		.loc 3 283 9 view .LVU185
 283:Include/benchmark.h ****         {
 683              		.loc 3 283 11 is_stmt 0 view .LVU186
 684 0050 423173E0 		rsbs	r3, r3, r2, asr #2
 685              	.LVL42:
 283:Include/benchmark.h ****         {
 686              		.loc 3 283 11 view .LVU187
 687 0054 F8FFFF1A 		bne	.L61
 296:Include/benchmark.h **** 
 688              		.loc 3 296 8 view .LVU188
 689 0058 07608EE0 		add	r6, lr, r7
 690              	.LVL43:
 691              	.L60:
ARM GAS  C:\Users\even\AppData\Local\Temp\ccu0RqlP.s 			page 38


 296:Include/benchmark.h **** 
 692              		.loc 3 296 5 is_stmt 1 view .LVU189
 299:Include/benchmark.h **** 
 693              		.loc 3 299 5 view .LVU190
 301:Include/benchmark.h ****     {
 694              		.loc 3 301 5 view .LVU191
 301:Include/benchmark.h ****     {
 695              		.loc 3 301 16 view .LVU192
 696              	.LBB385:
 697              	.LBB386:
 222:Include/benchmark.h ****     return 0;
 698              		.loc 3 222 5 is_stmt 0 discriminator 1 view .LVU193
 699 005c 015AA0E3 		mov	r5, #4096
 700              	.LBE386:
 701              	.LBE385:
 306:Include/benchmark.h ****     }
 702              		.loc 3 306 12 view .LVU194
 703 0060 678606E3 		movw	r8, #26215
 704              	.LBB390:
 705              	.LBB387:
 222:Include/benchmark.h ****     return 0;
 706              		.loc 3 222 5 discriminator 1 view .LVU195
 707 0064 00504EE3 		movt	r5, 57344
 708              	.LBE387:
 709              	.LBE390:
 306:Include/benchmark.h ****     }
 710              		.loc 3 306 12 view .LVU196
 711 0068 668646E3 		movt	r8, 26214
 712              	.LVL44:
 713              	.L63:
 303:Include/benchmark.h ****         __USR_Putchar((s8)(Iter/Div)+'0');
 714              		.loc 3 303 9 is_stmt 1 view .LVU197
 715 006c 0410A0E1 		mov	r1, r4
 303:Include/benchmark.h ****         __USR_Putchar((s8)(Iter/Div)+'0');
 716              		.loc 3 303 14 is_stmt 0 view .LVU198
 717 0070 017047E2 		sub	r7, r7, #1
 718              	.LVL45:
 304:Include/benchmark.h ****         Iter=Iter%Div;
 719              		.loc 3 304 9 is_stmt 1 view .LVU199
 720 0074 FEFFFFEB 		bl	__aeabi_idivmod
 721              	.LVL46:
 304:Include/benchmark.h ****         Iter=Iter%Div;
 722              		.loc 3 304 37 is_stmt 0 view .LVU200
 723 0078 302080E2 		add	r2, r0, #48
 304:Include/benchmark.h ****         Iter=Iter%Div;
 724              		.loc 3 304 9 view .LVU201
 725 007c 7220AFE6 		sxtb	r2, r2
 726              	.LVL47:
 727              	.LBB391:
 728              	.LBI385:
 220:Include/benchmark.h **** {
 729              		.loc 3 220 7 is_stmt 1 view .LVU202
 730              	.LBB388:
 222:Include/benchmark.h ****     return 0;
 731              		.loc 3 222 5 view .LVU203
 222:Include/benchmark.h ****     return 0;
 732              		.loc 3 222 5 view .LVU204
ARM GAS  C:\Users\even\AppData\Local\Temp\ccu0RqlP.s 			page 39


 733              	.L62:
 222:Include/benchmark.h ****     return 0;
 734              		.loc 3 222 5 discriminator 1 view .LVU205
 735 0080 2C3095E5 		ldr	r3, [r5, #44]
 736 0084 080013E3 		tst	r3, #8
 737 0088 FCFFFF0A 		beq	.L62
 222:Include/benchmark.h ****     return 0;
 738              		.loc 3 222 5 discriminator 2 view .LVU206
 739              	.LBE388:
 740              	.LBE391:
 306:Include/benchmark.h ****     }
 741              		.loc 3 306 12 is_stmt 0 view .LVU207
 742 008c 9804C3E0 		smull	r0, r3, r8, r4
 301:Include/benchmark.h ****     {
 743              		.loc 3 301 16 view .LVU208
 744 0090 000057E3 		cmp	r7, #0
 306:Include/benchmark.h ****     }
 745              		.loc 3 306 12 view .LVU209
 746 0094 C44FA0E1 		asr	r4, r4, #31
 747              	.LVL48:
 305:Include/benchmark.h ****         Div/=10;
 748              		.loc 3 305 13 view .LVU210
 749 0098 0100A0E1 		mov	r0, r1
 750              	.LBB392:
 751              	.LBB389:
 222:Include/benchmark.h ****     return 0;
 752              		.loc 3 222 5 discriminator 2 view .LVU211
 753 009c 302085E5 		str	r2, [r5, #48]
 222:Include/benchmark.h ****     return 0;
 754              		.loc 3 222 5 is_stmt 1 view .LVU212
 223:Include/benchmark.h **** }
 755              		.loc 3 223 5 view .LVU213
 756              	.LVL49:
 223:Include/benchmark.h **** }
 757              		.loc 3 223 5 is_stmt 0 view .LVU214
 758              	.LBE389:
 759              	.LBE392:
 305:Include/benchmark.h ****         Div/=10;
 760              		.loc 3 305 9 is_stmt 1 view .LVU215
 306:Include/benchmark.h ****     }
 761              		.loc 3 306 9 view .LVU216
 306:Include/benchmark.h ****     }
 762              		.loc 3 306 12 is_stmt 0 view .LVU217
 763 00a0 434164E0 		rsb	r4, r4, r3, asr #2
 764              	.LVL50:
 301:Include/benchmark.h ****     {
 765              		.loc 3 301 16 is_stmt 1 view .LVU218
 766 00a4 F0FFFF1A 		bne	.L63
 767              	.LVL51:
 310:Include/benchmark.h **** /* End Function:USR_DBG_I ************************************************/
 768              		.loc 3 310 1 is_stmt 0 view .LVU219
 769 00a8 0600A0E1 		mov	r0, r6
 770              	.LVL52:
 310:Include/benchmark.h **** /* End Function:USR_DBG_I ************************************************/
 771              		.loc 3 310 1 view .LVU220
 772 00ac F081BDE8 		pop	{r4, r5, r6, r7, r8, pc}
 773              	.LVL53:
ARM GAS  C:\Users\even\AppData\Local\Temp\ccu0RqlP.s 			page 40


 774              	.L76:
 775              	.LBB393:
 776              	.LBB394:
 222:Include/benchmark.h ****     return 0;
 777              		.loc 3 222 5 discriminator 1 view .LVU221
 778 00b0 012AA0E3 		mov	r2, #4096
 779 00b4 00204EE3 		movt	r2, 57344
 780              	.L59:
 222:Include/benchmark.h ****     return 0;
 781              		.loc 3 222 5 is_stmt 1 discriminator 1 view .LVU222
 782 00b8 2C3092E5 		ldr	r3, [r2, #44]
 783 00bc 080013E3 		tst	r3, #8
 784 00c0 FCFFFF0A 		beq	.L59
 222:Include/benchmark.h ****     return 0;
 785              		.loc 3 222 5 discriminator 2 view .LVU223
 786 00c4 2D30A0E3 		mov	r3, #45
 787              	.LBE394:
 788              	.LBE393:
 264:Include/benchmark.h ****         Num=1;
 789              		.loc 3 264 12 is_stmt 0 view .LVU224
 790 00c8 000060E2 		rsb	r0, r0, #0
 791              	.LVL54:
 264:Include/benchmark.h ****         Num=1;
 792              		.loc 3 264 12 view .LVU225
 793 00cc 0260A0E3 		mov	r6, #2
 265:Include/benchmark.h ****     }
 794              		.loc 3 265 12 view .LVU226
 795 00d0 01E0A0E3 		mov	lr, #1
 796              	.LBB396:
 797              	.LBB395:
 222:Include/benchmark.h ****     return 0;
 798              		.loc 3 222 5 discriminator 2 view .LVU227
 799 00d4 303082E5 		str	r3, [r2, #48]
 222:Include/benchmark.h ****     return 0;
 800              		.loc 3 222 5 is_stmt 1 view .LVU228
 223:Include/benchmark.h **** }
 801              		.loc 3 223 5 view .LVU229
 802              	.LBE395:
 803              	.LBE396:
 264:Include/benchmark.h ****         Num=1;
 804              		.loc 3 264 9 view .LVU230
 805              	.LVL55:
 265:Include/benchmark.h ****     }
 806              		.loc 3 265 9 view .LVU231
 265:Include/benchmark.h ****     }
 807              		.loc 3 265 9 is_stmt 0 view .LVU232
 808 00d8 CEFFFFEA 		b	.L58
 809              	.LVL56:
 810              	.L75:
 811              	.LBB397:
 812              	.LBB398:
 813              	.LBB399:
 814              	.LBB400:
 222:Include/benchmark.h ****     return 0;
 815              		.loc 3 222 5 discriminator 1 view .LVU233
 816 00dc 012AA0E3 		mov	r2, #4096
 817 00e0 00204EE3 		movt	r2, 57344
ARM GAS  C:\Users\even\AppData\Local\Temp\ccu0RqlP.s 			page 41


 818              	.L56:
 222:Include/benchmark.h ****     return 0;
 819              		.loc 3 222 5 is_stmt 1 discriminator 1 view .LVU234
 820 00e4 2C3092E5 		ldr	r3, [r2, #44]
 821 00e8 080013E3 		tst	r3, #8
 822 00ec FCFFFF0A 		beq	.L56
 222:Include/benchmark.h ****     return 0;
 823              		.loc 3 222 5 discriminator 2 view .LVU235
 824 00f0 3030A0E3 		mov	r3, #48
 825 00f4 0160A0E3 		mov	r6, #1
 826              	.LBE400:
 827              	.LBE399:
 828              	.LBE398:
 829              	.LBE397:
 310:Include/benchmark.h **** /* End Function:USR_DBG_I ************************************************/
 830              		.loc 3 310 1 is_stmt 0 view .LVU236
 831 00f8 0600A0E1 		mov	r0, r6
 832              	.LVL57:
 833              	.LBB404:
 834              	.LBB403:
 835              	.LBB402:
 836              	.LBB401:
 222:Include/benchmark.h ****     return 0;
 837              		.loc 3 222 5 discriminator 2 view .LVU237
 838 00fc 303082E5 		str	r3, [r2, #48]
 222:Include/benchmark.h ****     return 0;
 839              		.loc 3 222 5 is_stmt 1 view .LVU238
 223:Include/benchmark.h **** }
 840              		.loc 3 223 5 view .LVU239
 841              	.LBE401:
 842              	.LBE402:
 249:Include/benchmark.h ****     }
 843              		.loc 3 249 9 view .LVU240
 844              	.LBE403:
 845              	.LBE404:
 310:Include/benchmark.h **** /* End Function:USR_DBG_I ************************************************/
 846              		.loc 3 310 1 is_stmt 0 view .LVU241
 847 0100 F081BDE8 		pop	{r4, r5, r6, r7, r8, pc}
 848              		.cfi_endproc
 849              	.LFE1:
 851              		.section	.rodata.RME_Same_Prc_Thd_Sig_Test_Thd_recv.str1.4,"aMS",%progbits,1
 852              		.align	2
 853              	.LC3:
 854 0000 0D0A456E 		.ascii	"\015\012Entering receive thread!\000"
 854      74657269 
 854      6E672072 
 854      65636569 
 854      76652074 
 855 001b 00       		.align	2
 856              	.LC4:
 857 001c 0D0A5265 		.ascii	"\015\012Received wrong number!\000"
 857      63656976 
 857      65642077 
 857      726F6E67 
 857      206E756D 
 858 0035 000000   		.align	2
 859              	.LC5:
ARM GAS  C:\Users\even\AppData\Local\Temp\ccu0RqlP.s 			page 42


 860 0038 0D0A5265 		.ascii	"\015\012Received!\000"
 860      63656976 
 860      65642100 
 861              		.align	2
 862              	.LC6:
 863 0044 0D0A2073 		.ascii	"\015\012 same prc sig send take time\000"
 863      616D6520 
 863      70726320 
 863      73696720 
 863      73656E64 
 864              		.section	.text.RME_Same_Prc_Thd_Sig_Test_Thd_recv,"ax",%progbits
 865              		.align	2
 866              		.global	RME_Same_Prc_Thd_Sig_Test_Thd_recv
 867              		.syntax unified
 868              		.arm
 870              	RME_Same_Prc_Thd_Sig_Test_Thd_recv:
 871              	.LFB27:
 115:Source/rme_benchmark.c **** 	USR_DBG_S("\r\nEntering receive thread!");
 872              		.loc 1 115 1 is_stmt 1 view -0
 873              		.cfi_startproc
 874              		@ Volatile: function does not return.
 875              		@ args = 0, pretend = 0, frame = 0
 876              		@ frame_needed = 0, uses_anonymous_args = 0
 116:Source/rme_benchmark.c **** 
 877              		.loc 1 116 2 view .LVU243
 878              	.LVL58:
 879              	.LBB405:
 880              	.LBI405:
 368:Include/benchmark.h **** {
 881              		.loc 3 368 7 view .LVU244
 882              	.LBB406:
 370:Include/benchmark.h **** 
 883              		.loc 3 370 5 view .LVU245
 372:Include/benchmark.h ****     {
 884              		.loc 3 372 5 view .LVU246
 372:Include/benchmark.h ****     {
 885              		.loc 3 372 23 discriminator 1 view .LVU247
 886 0000 001000E3 		movw	r1, #:lower16:.LC3
 887              	.LBB407:
 888              	.LBB408:
 222:Include/benchmark.h ****     return 0;
 889              		.loc 3 222 5 is_stmt 0 discriminator 1 view .LVU248
 890 0004 012AA0E3 		mov	r2, #4096
 891 0008 001040E3 		movt	r1, #:upper16:.LC3
 892 000c 00204EE3 		movt	r2, 57344
 893 0010 FFC081E2 		add	ip, r1, #255
 894              	.LBE408:
 895              	.LBE407:
 896              	.LBE406:
 897              	.LBE405:
 115:Source/rme_benchmark.c **** 	USR_DBG_S("\r\nEntering receive thread!");
 898              		.loc 1 115 1 view .LVU249
 899 0014 80402DE9 		push	{r7, lr}
 900              		.cfi_def_cfa_offset 8
 901              		.cfi_offset 7, -8
 902              		.cfi_offset 14, -4
 903              	.LVL59:
ARM GAS  C:\Users\even\AppData\Local\Temp\ccu0RqlP.s 			page 43


 904              	.L80:
 905              	.LBB414:
 906              	.LBB413:
 374:Include/benchmark.h ****         {
 907              		.loc 3 374 9 is_stmt 1 view .LVU250
 374:Include/benchmark.h ****         {
 908              		.loc 3 374 18 is_stmt 0 view .LVU251
 909 0018 D100D1E0 		ldrsb	r0, [r1], #1
 910              	.LVL60:
 374:Include/benchmark.h ****         {
 911              		.loc 3 374 11 view .LVU252
 912 001c 000050E3 		cmp	r0, #0
 913 0020 0500000A 		beq	.L81
 914              	.L78:
 915              	.LBB411:
 916              	.LBB409:
 222:Include/benchmark.h ****     return 0;
 917              		.loc 3 222 5 is_stmt 1 discriminator 1 view .LVU253
 918 0024 2C3092E5 		ldr	r3, [r2, #44]
 919 0028 080013E3 		tst	r3, #8
 920 002c FCFFFF0A 		beq	.L78
 222:Include/benchmark.h ****     return 0;
 921              		.loc 3 222 5 discriminator 2 view .LVU254
 922              	.LBE409:
 923              	.LBE411:
 372:Include/benchmark.h ****     {
 924              		.loc 3 372 23 is_stmt 0 discriminator 1 view .LVU255
 925 0030 0C0051E1 		cmp	r1, ip
 926              	.LBB412:
 927              	.LBB410:
 222:Include/benchmark.h ****     return 0;
 928              		.loc 3 222 5 discriminator 2 view .LVU256
 929 0034 300082E5 		str	r0, [r2, #48]
 222:Include/benchmark.h ****     return 0;
 930              		.loc 3 222 5 is_stmt 1 view .LVU257
 223:Include/benchmark.h **** }
 931              		.loc 3 223 5 view .LVU258
 932              	.LBE410:
 933              	.LBE412:
 372:Include/benchmark.h ****     {
 934              		.loc 3 372 33 discriminator 2 view .LVU259
 935              	.LVL61:
 372:Include/benchmark.h ****     {
 936              		.loc 3 372 23 discriminator 1 view .LVU260
 937 0038 F6FFFF1A 		bne	.L80
 938              	.LVL62:
 939              	.L81:
 372:Include/benchmark.h ****     {
 940              		.loc 3 372 23 is_stmt 0 discriminator 1 view .LVU261
 941 003c F0609FE5 		ldr	r6, .L111
 942 0040 007000E3 		movw	r7, #:lower16:end
 943 0044 EC509FE5 		ldr	r5, .L111+4
 944 0048 008000E3 		movw	r8, #:lower16:start
 945              	.LBE413:
 946              	.LBE414:
 947              	.LBB415:
 948              	.LBB416:
ARM GAS  C:\Users\even\AppData\Local\Temp\ccu0RqlP.s 			page 44


 394:Include/benchmark.h **** 	return temp;
 949              		.loc 3 394 6 view .LVU262
 950 004c 0090A0E3 		mov	r9, #0
 951              	.LBE416:
 952              	.LBE415:
 953              	.LBB419:
 954              	.LBB420:
 955              	.LBB421:
 956              	.LBB422:
 222:Include/benchmark.h ****     return 0;
 957              		.loc 3 222 5 discriminator 1 view .LVU263
 958 0050 014AA0E3 		mov	r4, #4096
 959 0054 007040E3 		movt	r7, #:upper16:end
 960 0058 008040E3 		movt	r8, #:upper16:start
 961              	.LBE422:
 962              	.LBE421:
 963              	.LBE420:
 964              	.LBE419:
 965              	.LBB431:
 966              	.LBB417:
 394:Include/benchmark.h **** 	return temp;
 967              		.loc 3 394 6 view .LVU264
 968 005c F0984FE3 		movt	r9, 63728
 969              	.LBE417:
 970              	.LBE431:
 971              	.LBB432:
 972              	.LBB429:
 973              	.LBB426:
 974              	.LBB423:
 222:Include/benchmark.h ****     return 0;
 975              		.loc 3 222 5 discriminator 1 view .LVU265
 976 0060 00404EE3 		movt	r4, 57344
 977              	.LVL63:
 978              	.L79:
 222:Include/benchmark.h ****     return 0;
 979              		.loc 3 222 5 discriminator 1 view .LVU266
 980              	.LBE423:
 981              	.LBE426:
 982              	.LBE429:
 983              	.LBE432:
 118:Source/rme_benchmark.c **** 	{
 984              		.loc 1 118 2 is_stmt 1 view .LVU267
 120:Source/rme_benchmark.c **** 		{
 985              		.loc 1 120 3 view .LVU268
 986              	.LBB433:
 987              	.LBI433:
 234:Include/sys.h **** }
 235:Include/sys.h **** /* End Function:RME_Sig_Snd **************************************************/
 236:Include/sys.h **** /* Function:RME_Sig_Rcv *******************************************************
 237:Include/sys.h **** Description : Try to receive from a signal endpoint. The rules for signal
 238:Include/sys.h ****               endpoint receive is:
 239:Include/sys.h ****               1.If a receive endpoint have many send endpoints, everyone can
 240:Include/sys.h ****                 send to it, and sending to it will increase the count by 1.
 241:Include/sys.h ****               2.If some thread blocks on a receive endpoint, the wakeup is only
 242:Include/sys.h ****                 possible from the same core that thread is on.
 243:Include/sys.h ****               3.It is not recommended to let 2 cores operate on the rcv
 244:Include/sys.h ****                 endpoint simutaneously.
ARM GAS  C:\Users\even\AppData\Local\Temp\ccu0RqlP.s 			page 45


 245:Include/sys.h ****               This system call can potentially trigger a context switch.
 246:Include/sys.h **** Input       : RME_cid_t Cap_Sig - The capability to the signal.
 247:Include/sys.h ****                                   2-Level.
 248:Include/sys.h ****               RME_ptr_t Option - The receive option.
 249:Include/sys.h **** Output      : None.
 250:Include/sys.h **** Return      : RME_ret_t - If successful, a non-negative number containing the
 251:Include/sys.h ****                           number of signals received; or an error code.
 252:Include/sys.h **** ******************************************************************************/
 253:Include/sys.h **** ret_t RME_Sig_Rcv(cid_t Cap_Sig,
 988              		.loc 2 253 7 view .LVU269
 989              	.LBB434:
 254:Include/sys.h ****                   ptr_t Option)
 255:Include/sys.h **** {
 256:Include/sys.h ****     return RME_SVC(RME_SVC_SIG_RCV,
 990              		.loc 2 256 5 view .LVU270
 991              		.loc 2 256 12 is_stmt 0 view .LVU271
 992 0064 0030A0E3 		mov	r3, #0
 993 0068 0D10A0E3 		mov	r1, #13
 994 006c 0320A0E1 		mov	r2, r3
 995 0070 0308A0E3 		mov	r0, #196608
 996 0074 FEFFFFEB 		bl	RME_Svc
 997              	.LVL64:
 257:Include/sys.h ****                    0U,
 258:Include/sys.h ****                    Cap_Sig,
 259:Include/sys.h ****                    Option,
 260:Include/sys.h ****                    0U);
 998              		.loc 2 260 23 is_stmt 1 view .LVU272
 999              		.loc 2 260 23 is_stmt 0 view .LVU273
 1000              	.LBE434:
 1001              	.LBE433:
 120:Source/rme_benchmark.c **** 		{
 1002              		.loc 1 120 5 discriminator 1 view .LVU274
 1003 0078 010050E3 		cmp	r0, #1
 1004 007c 1D00001A 		bne	.L110
 125:Source/rme_benchmark.c **** 		USR_DBG_S("\r\nReceived!");
 1005              		.loc 1 125 3 is_stmt 1 view .LVU275
 1006              	.LBB435:
 1007              	.LBI415:
 391:Include/benchmark.h **** {
 1008              		.loc 3 391 7 view .LVU276
 1009              	.LBB418:
 393:Include/benchmark.h **** 	temp=RME_A7A_REG(&RME_A7A_GTWD_GTCR0);
 1010              		.loc 3 393 2 view .LVU277
 394:Include/benchmark.h **** 	return temp;
 1011              		.loc 3 394 2 view .LVU278
 394:Include/benchmark.h **** 	return temp;
 1012              		.loc 3 394 6 is_stmt 0 view .LVU279
 1013 0080 003299E5 		ldr	r3, [r9, #512]
 1014              	.LVL65:
 1015              		.loc 3 395 2 is_stmt 1 view .LVU280
 1016              		.loc 3 395 2 is_stmt 0 view .LVU281
 1017 0084 002000E3 		movw	r2, #:lower16:.LC5
 1018 0088 002040E3 		movt	r2, #:upper16:.LC5
 1019              	.LBE418:
 1020              	.LBE435:
 125:Source/rme_benchmark.c **** 		USR_DBG_S("\r\nReceived!");
 1021              		.loc 1 125 6 discriminator 1 view .LVU282
ARM GAS  C:\Users\even\AppData\Local\Temp\ccu0RqlP.s 			page 46


 1022 008c 003087E5 		str	r3, [r7]
 126:Source/rme_benchmark.c **** 		USR_DBG_S("\r\n same prc sig send take time");
 1023              		.loc 1 126 3 is_stmt 1 view .LVU283
 1024              	.LVL66:
 1025              	.LBB436:
 1026              	.LBI419:
 368:Include/benchmark.h **** {
 1027              		.loc 3 368 7 view .LVU284
 1028              	.LBB430:
 370:Include/benchmark.h **** 
 1029              		.loc 3 370 5 view .LVU285
 372:Include/benchmark.h ****     {
 1030              		.loc 3 372 5 view .LVU286
 372:Include/benchmark.h ****     {
 1031              		.loc 3 372 23 discriminator 1 view .LVU287
 1032              	.L88:
 374:Include/benchmark.h ****         {
 1033              		.loc 3 374 9 view .LVU288
 374:Include/benchmark.h ****         {
 1034              		.loc 3 374 18 is_stmt 0 view .LVU289
 1035 0090 D110D2E0 		ldrsb	r1, [r2], #1
 1036              	.LVL67:
 374:Include/benchmark.h ****         {
 1037              		.loc 3 374 11 view .LVU290
 1038 0094 000051E3 		cmp	r1, #0
 1039 0098 0500000A 		beq	.L89
 1040              	.L86:
 1041              	.LBB427:
 1042              	.LBB424:
 222:Include/benchmark.h ****     return 0;
 1043              		.loc 3 222 5 is_stmt 1 discriminator 1 view .LVU291
 1044 009c 2C3094E5 		ldr	r3, [r4, #44]
 1045 00a0 080013E3 		tst	r3, #8
 1046 00a4 FCFFFF0A 		beq	.L86
 222:Include/benchmark.h ****     return 0;
 1047              		.loc 3 222 5 discriminator 2 view .LVU292
 1048              	.LBE424:
 1049              	.LBE427:
 372:Include/benchmark.h ****     {
 1050              		.loc 3 372 23 is_stmt 0 discriminator 1 view .LVU293
 1051 00a8 020056E1 		cmp	r6, r2
 1052              	.LBB428:
 1053              	.LBB425:
 222:Include/benchmark.h ****     return 0;
 1054              		.loc 3 222 5 discriminator 2 view .LVU294
 1055 00ac 301084E5 		str	r1, [r4, #48]
 222:Include/benchmark.h ****     return 0;
 1056              		.loc 3 222 5 is_stmt 1 view .LVU295
 223:Include/benchmark.h **** }
 1057              		.loc 3 223 5 view .LVU296
 1058              	.LBE425:
 1059              	.LBE428:
 372:Include/benchmark.h ****     {
 1060              		.loc 3 372 33 discriminator 2 view .LVU297
 1061              	.LVL68:
 372:Include/benchmark.h ****     {
 1062              		.loc 3 372 23 discriminator 1 view .LVU298
ARM GAS  C:\Users\even\AppData\Local\Temp\ccu0RqlP.s 			page 47


 1063 00b0 F6FFFF1A 		bne	.L88
 1064              	.LVL69:
 1065              	.L89:
 372:Include/benchmark.h ****     {
 1066              		.loc 3 372 23 is_stmt 0 discriminator 1 view .LVU299
 1067              	.LBE430:
 1068              	.LBE436:
 1069              	.LBB437:
 1070              	.LBB438:
 372:Include/benchmark.h ****     {
 1071              		.loc 3 372 23 is_stmt 1 discriminator 1 view .LVU300
 1072 00b4 002000E3 		movw	r2, #:lower16:.LC6
 1073 00b8 002040E3 		movt	r2, #:upper16:.LC6
 1074              	.LVL70:
 1075              	.L87:
 374:Include/benchmark.h ****         {
 1076              		.loc 3 374 9 view .LVU301
 374:Include/benchmark.h ****         {
 1077              		.loc 3 374 18 is_stmt 0 view .LVU302
 1078 00bc D110D2E0 		ldrsb	r1, [r2], #1
 1079              	.LVL71:
 374:Include/benchmark.h ****         {
 1080              		.loc 3 374 11 view .LVU303
 1081 00c0 000051E3 		cmp	r1, #0
 1082 00c4 0500000A 		beq	.L91
 1083              	.L90:
 1084              	.LBB439:
 1085              	.LBB440:
 222:Include/benchmark.h ****     return 0;
 1086              		.loc 3 222 5 is_stmt 1 discriminator 1 view .LVU304
 1087 00c8 2C3094E5 		ldr	r3, [r4, #44]
 1088 00cc 080013E3 		tst	r3, #8
 1089 00d0 FCFFFF0A 		beq	.L90
 222:Include/benchmark.h ****     return 0;
 1090              		.loc 3 222 5 discriminator 2 view .LVU305
 1091              	.LBE440:
 1092              	.LBE439:
 372:Include/benchmark.h ****     {
 1093              		.loc 3 372 23 is_stmt 0 discriminator 1 view .LVU306
 1094 00d4 020055E1 		cmp	r5, r2
 1095              	.LBB442:
 1096              	.LBB441:
 222:Include/benchmark.h ****     return 0;
 1097              		.loc 3 222 5 discriminator 2 view .LVU307
 1098 00d8 301084E5 		str	r1, [r4, #48]
 222:Include/benchmark.h ****     return 0;
 1099              		.loc 3 222 5 is_stmt 1 view .LVU308
 223:Include/benchmark.h **** }
 1100              		.loc 3 223 5 view .LVU309
 1101              	.LBE441:
 1102              	.LBE442:
 372:Include/benchmark.h ****     {
 1103              		.loc 3 372 33 discriminator 2 view .LVU310
 1104              	.LVL72:
 372:Include/benchmark.h ****     {
 1105              		.loc 3 372 23 discriminator 1 view .LVU311
 1106 00dc F6FFFF1A 		bne	.L87
ARM GAS  C:\Users\even\AppData\Local\Temp\ccu0RqlP.s 			page 48


 1107              	.LVL73:
 1108              	.L91:
 387:Include/benchmark.h **** }
 1109              		.loc 3 387 5 view .LVU312
 1110              	.LBE438:
 1111              	.LBE437:
 128:Source/rme_benchmark.c **** 	}
 1112              		.loc 1 128 3 view .LVU313
 128:Source/rme_benchmark.c **** 	}
 1113              		.loc 1 128 17 is_stmt 0 view .LVU314
 1114 00e0 000097E5 		ldr	r0, [r7]
 1115 00e4 003098E5 		ldr	r3, [r8]
 1116 00e8 030040E0 		sub	r0, r0, r3
 128:Source/rme_benchmark.c **** 	}
 1117              		.loc 1 128 3 view .LVU315
 1118 00ec 8000A0E1 		lsl	r0, r0, #1
 1119 00f0 FEFFFFEB 		bl	USR_DBG_I
 1120              	.LVL74:
 118:Source/rme_benchmark.c **** 	{
 1121              		.loc 1 118 7 is_stmt 1 view .LVU316
 120:Source/rme_benchmark.c **** 		{
 1122              		.loc 1 120 5 is_stmt 0 view .LVU317
 1123 00f4 DAFFFFEA 		b	.L79
 1124              	.L110:
 1125 00f8 001000E3 		movw	r1, #:lower16:.LC4
 1126              	.LBB443:
 1127              	.LBB444:
 1128              	.LBB445:
 1129              	.LBB446:
 222:Include/benchmark.h ****     return 0;
 1130              		.loc 3 222 5 discriminator 1 view .LVU318
 1131 00fc 012AA0E3 		mov	r2, #4096
 1132 0100 001040E3 		movt	r1, #:upper16:.LC4
 1133 0104 00204EE3 		movt	r2, 57344
 1134 0108 FFC081E2 		add	ip, r1, #255
 1135              	.L85:
 1136              	.LVL75:
 222:Include/benchmark.h ****     return 0;
 1137              		.loc 3 222 5 discriminator 1 view .LVU319
 1138              	.LBE446:
 1139              	.LBE445:
 374:Include/benchmark.h ****         {
 1140              		.loc 3 374 9 is_stmt 1 view .LVU320
 374:Include/benchmark.h ****         {
 1141              		.loc 3 374 18 is_stmt 0 view .LVU321
 1142 010c D100D1E0 		ldrsb	r0, [r1], #1
 1143              	.LVL76:
 374:Include/benchmark.h ****         {
 1144              		.loc 3 374 11 view .LVU322
 1145 0110 000050E3 		cmp	r0, #0
 1146 0114 0500000A 		beq	.L83
 1147              	.L84:
 1148              	.LBB449:
 1149              	.LBB447:
 222:Include/benchmark.h ****     return 0;
 1150              		.loc 3 222 5 is_stmt 1 discriminator 1 view .LVU323
 1151 0118 2C3092E5 		ldr	r3, [r2, #44]
ARM GAS  C:\Users\even\AppData\Local\Temp\ccu0RqlP.s 			page 49


 1152 011c 080013E3 		tst	r3, #8
 1153 0120 FCFFFF0A 		beq	.L84
 222:Include/benchmark.h ****     return 0;
 1154              		.loc 3 222 5 discriminator 2 view .LVU324
 1155              	.LBE447:
 1156              	.LBE449:
 372:Include/benchmark.h ****     {
 1157              		.loc 3 372 23 is_stmt 0 discriminator 1 view .LVU325
 1158 0124 01005CE1 		cmp	ip, r1
 1159              	.LBB450:
 1160              	.LBB448:
 222:Include/benchmark.h ****     return 0;
 1161              		.loc 3 222 5 discriminator 2 view .LVU326
 1162 0128 300082E5 		str	r0, [r2, #48]
 222:Include/benchmark.h ****     return 0;
 1163              		.loc 3 222 5 is_stmt 1 view .LVU327
 223:Include/benchmark.h **** }
 1164              		.loc 3 223 5 view .LVU328
 1165              	.LBE448:
 1166              	.LBE450:
 372:Include/benchmark.h ****     {
 1167              		.loc 3 372 33 discriminator 2 view .LVU329
 1168              	.LVL77:
 372:Include/benchmark.h ****     {
 1169              		.loc 3 372 23 discriminator 1 view .LVU330
 1170 012c F6FFFF1A 		bne	.L85
 1171              	.LVL78:
 1172              	.L83:
 1173              	.L108:
 372:Include/benchmark.h ****     {
 1174              		.loc 3 372 23 is_stmt 0 discriminator 1 view .LVU331
 1175              	.LBE444:
 1176              	.LBE443:
 123:Source/rme_benchmark.c **** 		}
 1177              		.loc 1 123 4 is_stmt 1 view .LVU332
 123:Source/rme_benchmark.c **** 		}
 1178              		.loc 1 123 9 view .LVU333
 123:Source/rme_benchmark.c **** 		}
 1179              		.loc 1 123 4 view .LVU334
 123:Source/rme_benchmark.c **** 		}
 1180              		.loc 1 123 9 view .LVU335
 1181 0130 FEFFFFEA 		b	.L108
 1182              	.L112:
 1183              		.align	2
 1184              	.L111:
 1185 0134 FF000000 		.word	.LC5+255
 1186 0138 FF000000 		.word	.LC6+255
 1187              		.cfi_endproc
 1188              	.LFE27:
 1190              		.section	.rodata.RME_Diff_Prc_Thd_Sig_Test_Thd_recv.str1.4,"aMS",%progbits,1
 1191              		.align	2
 1192              	.LC7:
 1193 0000 0D0A456E 		.ascii	"\015\012Entering diff receive thread!\000"
 1193      74657269 
 1193      6E672064 
 1193      69666620 
 1193      72656365 
ARM GAS  C:\Users\even\AppData\Local\Temp\ccu0RqlP.s 			page 50


 1194              		.align	2
 1195              	.LC8:
 1196 0020 0D0A2064 		.ascii	"\015\012 diff prc sig send take time\000"
 1196      69666620 
 1196      70726320 
 1196      73696720 
 1196      73656E64 
 1197              		.section	.text.RME_Diff_Prc_Thd_Sig_Test_Thd_recv,"ax",%progbits
 1198              		.align	2
 1199              		.global	RME_Diff_Prc_Thd_Sig_Test_Thd_recv
 1200              		.syntax unified
 1201              		.arm
 1203              	RME_Diff_Prc_Thd_Sig_Test_Thd_recv:
 1204              	.LFB29:
 145:Source/rme_benchmark.c **** 	USR_DBG_S("\r\nEntering diff receive thread!");
 1205              		.loc 1 145 1 view -0
 1206              		.cfi_startproc
 1207              		@ Volatile: function does not return.
 1208              		@ args = 0, pretend = 0, frame = 0
 1209              		@ frame_needed = 0, uses_anonymous_args = 0
 146:Source/rme_benchmark.c **** 
 1210              		.loc 1 146 2 view .LVU337
 1211              	.LVL79:
 1212              	.LBB451:
 1213              	.LBI451:
 368:Include/benchmark.h **** {
 1214              		.loc 3 368 7 view .LVU338
 1215              	.LBB452:
 370:Include/benchmark.h **** 
 1216              		.loc 3 370 5 view .LVU339
 372:Include/benchmark.h ****     {
 1217              		.loc 3 372 5 view .LVU340
 372:Include/benchmark.h ****     {
 1218              		.loc 3 372 23 discriminator 1 view .LVU341
 1219 0000 001000E3 		movw	r1, #:lower16:.LC7
 1220              	.LBB453:
 1221              	.LBB454:
 222:Include/benchmark.h ****     return 0;
 1222              		.loc 3 222 5 is_stmt 0 discriminator 1 view .LVU342
 1223 0004 012AA0E3 		mov	r2, #4096
 1224 0008 001040E3 		movt	r1, #:upper16:.LC7
 1225 000c 00204EE3 		movt	r2, 57344
 1226 0010 FFC081E2 		add	ip, r1, #255
 1227              	.LBE454:
 1228              	.LBE453:
 1229              	.LBE452:
 1230              	.LBE451:
 145:Source/rme_benchmark.c **** 	USR_DBG_S("\r\nEntering diff receive thread!");
 1231              		.loc 1 145 1 view .LVU343
 1232 0014 80402DE9 		push	{r7, lr}
 1233              		.cfi_def_cfa_offset 8
 1234              		.cfi_offset 7, -8
 1235              		.cfi_offset 14, -4
 1236              	.LVL80:
 1237              	.L116:
 1238              	.LBB460:
 1239              	.LBB459:
ARM GAS  C:\Users\even\AppData\Local\Temp\ccu0RqlP.s 			page 51


 374:Include/benchmark.h ****         {
 1240              		.loc 3 374 9 is_stmt 1 view .LVU344
 374:Include/benchmark.h ****         {
 1241              		.loc 3 374 18 is_stmt 0 view .LVU345
 1242 0018 D100D1E0 		ldrsb	r0, [r1], #1
 1243              	.LVL81:
 374:Include/benchmark.h ****         {
 1244              		.loc 3 374 11 view .LVU346
 1245 001c 000050E3 		cmp	r0, #0
 1246 0020 0500000A 		beq	.L117
 1247              	.L114:
 1248              	.LBB457:
 1249              	.LBB455:
 222:Include/benchmark.h ****     return 0;
 1250              		.loc 3 222 5 is_stmt 1 discriminator 1 view .LVU347
 1251 0024 2C3092E5 		ldr	r3, [r2, #44]
 1252 0028 080013E3 		tst	r3, #8
 1253 002c FCFFFF0A 		beq	.L114
 222:Include/benchmark.h ****     return 0;
 1254              		.loc 3 222 5 discriminator 2 view .LVU348
 1255              	.LBE455:
 1256              	.LBE457:
 372:Include/benchmark.h ****     {
 1257              		.loc 3 372 23 is_stmt 0 discriminator 1 view .LVU349
 1258 0030 0C0051E1 		cmp	r1, ip
 1259              	.LBB458:
 1260              	.LBB456:
 222:Include/benchmark.h ****     return 0;
 1261              		.loc 3 222 5 discriminator 2 view .LVU350
 1262 0034 300082E5 		str	r0, [r2, #48]
 222:Include/benchmark.h ****     return 0;
 1263              		.loc 3 222 5 is_stmt 1 view .LVU351
 223:Include/benchmark.h **** }
 1264              		.loc 3 223 5 view .LVU352
 1265              	.LBE456:
 1266              	.LBE458:
 372:Include/benchmark.h ****     {
 1267              		.loc 3 372 33 discriminator 2 view .LVU353
 1268              	.LVL82:
 372:Include/benchmark.h ****     {
 1269              		.loc 3 372 23 discriminator 1 view .LVU354
 1270 0038 F6FFFF1A 		bne	.L116
 1271              	.LVL83:
 1272              	.L117:
 372:Include/benchmark.h ****     {
 1273              		.loc 3 372 23 is_stmt 0 discriminator 1 view .LVU355
 1274 003c F0609FE5 		ldr	r6, .L147
 1275 0040 007000E3 		movw	r7, #:lower16:end
 1276 0044 EC509FE5 		ldr	r5, .L147+4
 1277 0048 008000E3 		movw	r8, #:lower16:start
 1278              	.LBE459:
 1279              	.LBE460:
 1280              	.LBB461:
 1281              	.LBB462:
 394:Include/benchmark.h **** 	return temp;
 1282              		.loc 3 394 6 view .LVU356
 1283 004c 0090A0E3 		mov	r9, #0
ARM GAS  C:\Users\even\AppData\Local\Temp\ccu0RqlP.s 			page 52


 1284              	.LBE462:
 1285              	.LBE461:
 1286              	.LBB465:
 1287              	.LBB466:
 1288              	.LBB467:
 1289              	.LBB468:
 222:Include/benchmark.h ****     return 0;
 1290              		.loc 3 222 5 discriminator 1 view .LVU357
 1291 0050 014AA0E3 		mov	r4, #4096
 1292 0054 007040E3 		movt	r7, #:upper16:end
 1293 0058 008040E3 		movt	r8, #:upper16:start
 1294              	.LBE468:
 1295              	.LBE467:
 1296              	.LBE466:
 1297              	.LBE465:
 1298              	.LBB477:
 1299              	.LBB463:
 394:Include/benchmark.h **** 	return temp;
 1300              		.loc 3 394 6 view .LVU358
 1301 005c F0984FE3 		movt	r9, 63728
 1302              	.LBE463:
 1303              	.LBE477:
 1304              	.LBB478:
 1305              	.LBB475:
 1306              	.LBB472:
 1307              	.LBB469:
 222:Include/benchmark.h ****     return 0;
 1308              		.loc 3 222 5 discriminator 1 view .LVU359
 1309 0060 00404EE3 		movt	r4, 57344
 1310              	.LVL84:
 1311              	.L115:
 222:Include/benchmark.h ****     return 0;
 1312              		.loc 3 222 5 discriminator 1 view .LVU360
 1313              	.LBE469:
 1314              	.LBE472:
 1315              	.LBE475:
 1316              	.LBE478:
 148:Source/rme_benchmark.c **** 	{
 1317              		.loc 1 148 2 is_stmt 1 view .LVU361
 150:Source/rme_benchmark.c **** 		{
 1318              		.loc 1 150 3 view .LVU362
 1319              	.LBB479:
 1320              	.LBI479:
 253:Include/sys.h ****                   ptr_t Option)
 1321              		.loc 2 253 7 view .LVU363
 1322              	.LBB480:
 256:Include/sys.h ****                    0U,
 1323              		.loc 2 256 5 view .LVU364
 256:Include/sys.h ****                    0U,
 1324              		.loc 2 256 12 is_stmt 0 view .LVU365
 1325 0064 0030A0E3 		mov	r3, #0
 1326 0068 0D10A0E3 		mov	r1, #13
 1327 006c 0320A0E1 		mov	r2, r3
 1328 0070 0308A0E3 		mov	r0, #196608
 1329 0074 FEFFFFEB 		bl	RME_Svc
 1330              	.LVL85:
 1331              		.loc 2 260 23 is_stmt 1 view .LVU366
ARM GAS  C:\Users\even\AppData\Local\Temp\ccu0RqlP.s 			page 53


 1332              		.loc 2 260 23 is_stmt 0 view .LVU367
 1333              	.LBE480:
 1334              	.LBE479:
 150:Source/rme_benchmark.c **** 		{
 1335              		.loc 1 150 5 discriminator 1 view .LVU368
 1336 0078 010050E3 		cmp	r0, #1
 1337 007c 1D00001A 		bne	.L146
 155:Source/rme_benchmark.c **** 		USR_DBG_S("\r\nReceived!");
 1338              		.loc 1 155 3 is_stmt 1 view .LVU369
 1339              	.LBB481:
 1340              	.LBI461:
 391:Include/benchmark.h **** {
 1341              		.loc 3 391 7 view .LVU370
 1342              	.LBB464:
 393:Include/benchmark.h **** 	temp=RME_A7A_REG(&RME_A7A_GTWD_GTCR0);
 1343              		.loc 3 393 2 view .LVU371
 394:Include/benchmark.h **** 	return temp;
 1344              		.loc 3 394 2 view .LVU372
 394:Include/benchmark.h **** 	return temp;
 1345              		.loc 3 394 6 is_stmt 0 view .LVU373
 1346 0080 003299E5 		ldr	r3, [r9, #512]
 1347              	.LVL86:
 1348              		.loc 3 395 2 is_stmt 1 view .LVU374
 1349              		.loc 3 395 2 is_stmt 0 view .LVU375
 1350 0084 002000E3 		movw	r2, #:lower16:.LC5
 1351 0088 002040E3 		movt	r2, #:upper16:.LC5
 1352              	.LBE464:
 1353              	.LBE481:
 155:Source/rme_benchmark.c **** 		USR_DBG_S("\r\nReceived!");
 1354              		.loc 1 155 6 discriminator 1 view .LVU376
 1355 008c 003087E5 		str	r3, [r7]
 156:Source/rme_benchmark.c **** 		USR_DBG_S("\r\n diff prc sig send take time");
 1356              		.loc 1 156 3 is_stmt 1 view .LVU377
 1357              	.LVL87:
 1358              	.LBB482:
 1359              	.LBI465:
 368:Include/benchmark.h **** {
 1360              		.loc 3 368 7 view .LVU378
 1361              	.LBB476:
 370:Include/benchmark.h **** 
 1362              		.loc 3 370 5 view .LVU379
 372:Include/benchmark.h ****     {
 1363              		.loc 3 372 5 view .LVU380
 372:Include/benchmark.h ****     {
 1364              		.loc 3 372 23 discriminator 1 view .LVU381
 1365              	.L124:
 374:Include/benchmark.h ****         {
 1366              		.loc 3 374 9 view .LVU382
 374:Include/benchmark.h ****         {
 1367              		.loc 3 374 18 is_stmt 0 view .LVU383
 1368 0090 D110D2E0 		ldrsb	r1, [r2], #1
 1369              	.LVL88:
 374:Include/benchmark.h ****         {
 1370              		.loc 3 374 11 view .LVU384
 1371 0094 000051E3 		cmp	r1, #0
 1372 0098 0500000A 		beq	.L125
 1373              	.L122:
ARM GAS  C:\Users\even\AppData\Local\Temp\ccu0RqlP.s 			page 54


 1374              	.LBB473:
 1375              	.LBB470:
 222:Include/benchmark.h ****     return 0;
 1376              		.loc 3 222 5 is_stmt 1 discriminator 1 view .LVU385
 1377 009c 2C3094E5 		ldr	r3, [r4, #44]
 1378 00a0 080013E3 		tst	r3, #8
 1379 00a4 FCFFFF0A 		beq	.L122
 222:Include/benchmark.h ****     return 0;
 1380              		.loc 3 222 5 discriminator 2 view .LVU386
 1381              	.LBE470:
 1382              	.LBE473:
 372:Include/benchmark.h ****     {
 1383              		.loc 3 372 23 is_stmt 0 discriminator 1 view .LVU387
 1384 00a8 020056E1 		cmp	r6, r2
 1385              	.LBB474:
 1386              	.LBB471:
 222:Include/benchmark.h ****     return 0;
 1387              		.loc 3 222 5 discriminator 2 view .LVU388
 1388 00ac 301084E5 		str	r1, [r4, #48]
 222:Include/benchmark.h ****     return 0;
 1389              		.loc 3 222 5 is_stmt 1 view .LVU389
 223:Include/benchmark.h **** }
 1390              		.loc 3 223 5 view .LVU390
 1391              	.LBE471:
 1392              	.LBE474:
 372:Include/benchmark.h ****     {
 1393              		.loc 3 372 33 discriminator 2 view .LVU391
 1394              	.LVL89:
 372:Include/benchmark.h ****     {
 1395              		.loc 3 372 23 discriminator 1 view .LVU392
 1396 00b0 F6FFFF1A 		bne	.L124
 1397              	.LVL90:
 1398              	.L125:
 372:Include/benchmark.h ****     {
 1399              		.loc 3 372 23 is_stmt 0 discriminator 1 view .LVU393
 1400              	.LBE476:
 1401              	.LBE482:
 1402              	.LBB483:
 1403              	.LBB484:
 372:Include/benchmark.h ****     {
 1404              		.loc 3 372 23 is_stmt 1 discriminator 1 view .LVU394
 1405 00b4 002000E3 		movw	r2, #:lower16:.LC8
 1406 00b8 002040E3 		movt	r2, #:upper16:.LC8
 1407              	.LVL91:
 1408              	.L123:
 374:Include/benchmark.h ****         {
 1409              		.loc 3 374 9 view .LVU395
 374:Include/benchmark.h ****         {
 1410              		.loc 3 374 18 is_stmt 0 view .LVU396
 1411 00bc D110D2E0 		ldrsb	r1, [r2], #1
 1412              	.LVL92:
 374:Include/benchmark.h ****         {
 1413              		.loc 3 374 11 view .LVU397
 1414 00c0 000051E3 		cmp	r1, #0
 1415 00c4 0500000A 		beq	.L127
 1416              	.L126:
 1417              	.LBB485:
ARM GAS  C:\Users\even\AppData\Local\Temp\ccu0RqlP.s 			page 55


 1418              	.LBB486:
 222:Include/benchmark.h ****     return 0;
 1419              		.loc 3 222 5 is_stmt 1 discriminator 1 view .LVU398
 1420 00c8 2C3094E5 		ldr	r3, [r4, #44]
 1421 00cc 080013E3 		tst	r3, #8
 1422 00d0 FCFFFF0A 		beq	.L126
 222:Include/benchmark.h ****     return 0;
 1423              		.loc 3 222 5 discriminator 2 view .LVU399
 1424              	.LBE486:
 1425              	.LBE485:
 372:Include/benchmark.h ****     {
 1426              		.loc 3 372 23 is_stmt 0 discriminator 1 view .LVU400
 1427 00d4 020055E1 		cmp	r5, r2
 1428              	.LBB488:
 1429              	.LBB487:
 222:Include/benchmark.h ****     return 0;
 1430              		.loc 3 222 5 discriminator 2 view .LVU401
 1431 00d8 301084E5 		str	r1, [r4, #48]
 222:Include/benchmark.h ****     return 0;
 1432              		.loc 3 222 5 is_stmt 1 view .LVU402
 223:Include/benchmark.h **** }
 1433              		.loc 3 223 5 view .LVU403
 1434              	.LBE487:
 1435              	.LBE488:
 372:Include/benchmark.h ****     {
 1436              		.loc 3 372 33 discriminator 2 view .LVU404
 1437              	.LVL93:
 372:Include/benchmark.h ****     {
 1438              		.loc 3 372 23 discriminator 1 view .LVU405
 1439 00dc F6FFFF1A 		bne	.L123
 1440              	.LVL94:
 1441              	.L127:
 387:Include/benchmark.h **** }
 1442              		.loc 3 387 5 view .LVU406
 1443              	.LBE484:
 1444              	.LBE483:
 158:Source/rme_benchmark.c **** 	}
 1445              		.loc 1 158 3 view .LVU407
 158:Source/rme_benchmark.c **** 	}
 1446              		.loc 1 158 17 is_stmt 0 view .LVU408
 1447 00e0 000097E5 		ldr	r0, [r7]
 1448 00e4 003098E5 		ldr	r3, [r8]
 1449 00e8 030040E0 		sub	r0, r0, r3
 158:Source/rme_benchmark.c **** 	}
 1450              		.loc 1 158 3 view .LVU409
 1451 00ec 8000A0E1 		lsl	r0, r0, #1
 1452 00f0 FEFFFFEB 		bl	USR_DBG_I
 1453              	.LVL95:
 148:Source/rme_benchmark.c **** 	{
 1454              		.loc 1 148 7 is_stmt 1 view .LVU410
 150:Source/rme_benchmark.c **** 		{
 1455              		.loc 1 150 5 is_stmt 0 view .LVU411
 1456 00f4 DAFFFFEA 		b	.L115
 1457              	.L146:
 1458 00f8 001000E3 		movw	r1, #:lower16:.LC4
 1459              	.LBB489:
 1460              	.LBB490:
ARM GAS  C:\Users\even\AppData\Local\Temp\ccu0RqlP.s 			page 56


 1461              	.LBB491:
 1462              	.LBB492:
 222:Include/benchmark.h ****     return 0;
 1463              		.loc 3 222 5 discriminator 1 view .LVU412
 1464 00fc 012AA0E3 		mov	r2, #4096
 1465 0100 001040E3 		movt	r1, #:upper16:.LC4
 1466 0104 00204EE3 		movt	r2, 57344
 1467 0108 FFC081E2 		add	ip, r1, #255
 1468              	.L121:
 1469              	.LVL96:
 222:Include/benchmark.h ****     return 0;
 1470              		.loc 3 222 5 discriminator 1 view .LVU413
 1471              	.LBE492:
 1472              	.LBE491:
 374:Include/benchmark.h ****         {
 1473              		.loc 3 374 9 is_stmt 1 view .LVU414
 374:Include/benchmark.h ****         {
 1474              		.loc 3 374 18 is_stmt 0 view .LVU415
 1475 010c D100D1E0 		ldrsb	r0, [r1], #1
 1476              	.LVL97:
 374:Include/benchmark.h ****         {
 1477              		.loc 3 374 11 view .LVU416
 1478 0110 000050E3 		cmp	r0, #0
 1479 0114 0500000A 		beq	.L119
 1480              	.L120:
 1481              	.LBB495:
 1482              	.LBB493:
 222:Include/benchmark.h ****     return 0;
 1483              		.loc 3 222 5 is_stmt 1 discriminator 1 view .LVU417
 1484 0118 2C3092E5 		ldr	r3, [r2, #44]
 1485 011c 080013E3 		tst	r3, #8
 1486 0120 FCFFFF0A 		beq	.L120
 222:Include/benchmark.h ****     return 0;
 1487              		.loc 3 222 5 discriminator 2 view .LVU418
 1488              	.LBE493:
 1489              	.LBE495:
 372:Include/benchmark.h ****     {
 1490              		.loc 3 372 23 is_stmt 0 discriminator 1 view .LVU419
 1491 0124 01005CE1 		cmp	ip, r1
 1492              	.LBB496:
 1493              	.LBB494:
 222:Include/benchmark.h ****     return 0;
 1494              		.loc 3 222 5 discriminator 2 view .LVU420
 1495 0128 300082E5 		str	r0, [r2, #48]
 222:Include/benchmark.h ****     return 0;
 1496              		.loc 3 222 5 is_stmt 1 view .LVU421
 223:Include/benchmark.h **** }
 1497              		.loc 3 223 5 view .LVU422
 1498              	.LBE494:
 1499              	.LBE496:
 372:Include/benchmark.h ****     {
 1500              		.loc 3 372 33 discriminator 2 view .LVU423
 1501              	.LVL98:
 372:Include/benchmark.h ****     {
 1502              		.loc 3 372 23 discriminator 1 view .LVU424
 1503 012c F6FFFF1A 		bne	.L121
 1504              	.LVL99:
ARM GAS  C:\Users\even\AppData\Local\Temp\ccu0RqlP.s 			page 57


 1505              	.L119:
 1506              	.L144:
 372:Include/benchmark.h ****     {
 1507              		.loc 3 372 23 is_stmt 0 discriminator 1 view .LVU425
 1508              	.LBE490:
 1509              	.LBE489:
 153:Source/rme_benchmark.c **** 		}
 1510              		.loc 1 153 4 is_stmt 1 view .LVU426
 153:Source/rme_benchmark.c **** 		}
 1511              		.loc 1 153 9 view .LVU427
 153:Source/rme_benchmark.c **** 		}
 1512              		.loc 1 153 4 view .LVU428
 153:Source/rme_benchmark.c **** 		}
 1513              		.loc 1 153 9 view .LVU429
 1514 0130 FEFFFFEA 		b	.L144
 1515              	.L148:
 1516              		.align	2
 1517              	.L147:
 1518 0134 FF000000 		.word	.LC5+255
 1519 0138 FF000000 		.word	.LC8+255
 1520              		.cfi_endproc
 1521              	.LFE29:
 1523              		.section	.text.USR_DBG_H,"ax",%progbits
 1524              		.align	2
 1525              		.global	USR_DBG_H
 1526              		.syntax unified
 1527              		.arm
 1529              	USR_DBG_H:
 1530              	.LVL100:
 1531              	.LFB2:
 321:Include/benchmark.h ****     ptr_t Iter;
 1532              		.loc 3 321 1 view -0
 1533              		.cfi_startproc
 1534              		@ args = 0, pretend = 0, frame = 0
 1535              		@ frame_needed = 0, uses_anonymous_args = 0
 322:Include/benchmark.h ****     ptr_t Count;
 1536              		.loc 3 322 5 view .LVU431
 323:Include/benchmark.h ****     ptr_t Num;
 1537              		.loc 3 323 5 view .LVU432
 324:Include/benchmark.h **** 
 1538              		.loc 3 324 5 view .LVU433
 327:Include/benchmark.h ****     {
 1539              		.loc 3 327 5 view .LVU434
 321:Include/benchmark.h ****     ptr_t Iter;
 1540              		.loc 3 321 1 is_stmt 0 view .LVU435
 1541 0000 04E02DE5 		str	lr, [sp, #-4]!
 1542              		.cfi_def_cfa_offset 4
 1543              		.cfi_offset 14, -4
 327:Include/benchmark.h ****     {
 1544              		.loc 3 327 7 view .LVU436
 1545 0004 00E050E2 		subs	lr, r0, #0
 1546              	.LBB509:
 1547              	.LBB510:
 1548              	.LBB511:
 1549              	.LBB512:
 222:Include/benchmark.h ****     return 0;
 1550              		.loc 3 222 5 discriminator 1 view .LVU437
ARM GAS  C:\Users\even\AppData\Local\Temp\ccu0RqlP.s 			page 58


 1551 0008 012AA003 		moveq	r2, #4096
 1552 000c 00204E03 		movteq	r2, 57344
 1553              	.LBE512:
 1554              	.LBE511:
 1555              	.LBE510:
 1556              	.LBE509:
 327:Include/benchmark.h ****     {
 1557              		.loc 3 327 7 view .LVU438
 1558 0010 1B00000A 		beq	.L150
 1559              	.LVL101:
 340:Include/benchmark.h ****     {
 1560              		.loc 3 340 36 is_stmt 1 view .LVU439
 1561 0014 2ECEB0E1 		lsrs	ip, lr, #28
 1562 0018 0800A013 		movne	r0, #8
 1563              	.LVL102:
 347:Include/benchmark.h ****     Num=Count;
 1564              		.loc 3 347 10 is_stmt 0 view .LVU440
 1565 001c 00C0A011 		movne	ip, r0
 340:Include/benchmark.h ****     {
 1566              		.loc 3 340 36 view .LVU441
 1567 0020 0700001A 		bne	.L152
 339:Include/benchmark.h ****     while((Iter>>(RME_WORD_BIT-4U))==0U)
 1568              		.loc 3 339 9 view .LVU442
 1569 0024 0E30A0E1 		mov	r3, lr
 1570              	.LVL103:
 1571              	.L151:
 342:Include/benchmark.h ****         Count++;
 1572              		.loc 3 342 9 is_stmt 1 view .LVU443
 342:Include/benchmark.h ****         Count++;
 1573              		.loc 3 342 13 is_stmt 0 view .LVU444
 1574 0028 0332A0E1 		lsl	r3, r3, #4
 1575              	.LVL104:
 343:Include/benchmark.h ****     }
 1576              		.loc 3 343 9 is_stmt 1 view .LVU445
 343:Include/benchmark.h ****     }
 1577              		.loc 3 343 14 is_stmt 0 view .LVU446
 1578 002c 01C08CE2 		add	ip, ip, #1
 1579              	.LVL105:
 340:Include/benchmark.h ****     {
 1580              		.loc 3 340 36 is_stmt 1 view .LVU447
 1581 0030 232EB0E1 		lsrs	r2, r3, #28
 1582 0034 FBFFFF0A 		beq	.L151
 347:Include/benchmark.h ****     Num=Count;
 1583              		.loc 3 347 5 view .LVU448
 1584              	.LVL106:
 348:Include/benchmark.h ****     while(Count>0U)
 1585              		.loc 3 348 5 view .LVU449
 349:Include/benchmark.h ****     {
 1586              		.loc 3 349 5 view .LVU450
 349:Include/benchmark.h ****     {
 1587              		.loc 3 349 16 view .LVU451
 1588 0038 08C07CE2 		rsbs	ip, ip, #8
 1589              	.LVL107:
 365:Include/benchmark.h **** }
 1590              		.loc 3 365 12 is_stmt 0 view .LVU452
 1591 003c 0C00A0E1 		mov	r0, ip
 349:Include/benchmark.h ****     {
ARM GAS  C:\Users\even\AppData\Local\Temp\ccu0RqlP.s 			page 59


 1592              		.loc 3 349 16 view .LVU453
 1593 0040 04F09D04 		ldreq	pc, [sp], #4
 1594              	.LVL108:
 1595              	.L152:
 1596              	.LBB516:
 1597              	.LBB517:
 222:Include/benchmark.h ****     return 0;
 1598              		.loc 3 222 5 discriminator 1 view .LVU454
 1599 0044 013AA0E3 		mov	r3, #4096
 1600 0048 00304EE3 		movt	r3, 57344
 1601              	.L159:
 1602              	.LVL109:
 222:Include/benchmark.h ****     return 0;
 1603              		.loc 3 222 5 discriminator 1 view .LVU455
 1604              	.LBE517:
 1605              	.LBE516:
 351:Include/benchmark.h ****         Iter=(Uint>>(Count<<2U))&0x0FU;
 1606              		.loc 3 351 9 is_stmt 1 view .LVU456
 351:Include/benchmark.h ****         Iter=(Uint>>(Count<<2U))&0x0FU;
 1607              		.loc 3 351 14 is_stmt 0 view .LVU457
 1608 004c 01C04CE2 		sub	ip, ip, #1
 1609              	.LVL110:
 352:Include/benchmark.h ****         if(Iter<10U)
 1610              		.loc 3 352 9 is_stmt 1 view .LVU458
 352:Include/benchmark.h ****         if(Iter<10U)
 1611              		.loc 3 352 19 is_stmt 0 view .LVU459
 1612 0050 0C21A0E1 		lsl	r2, ip, #2
 1613 0054 3E22A0E1 		lsr	r2, lr, r2
 352:Include/benchmark.h ****         if(Iter<10U)
 1614              		.loc 3 352 13 view .LVU460
 1615 0058 0F1002E2 		and	r1, r2, #15
 1616              	.LVL111:
 353:Include/benchmark.h ****         {
 1617              		.loc 3 353 9 is_stmt 1 view .LVU461
 353:Include/benchmark.h ****         {
 1618              		.loc 3 353 11 is_stmt 0 view .LVU462
 1619 005c 090051E3 		cmp	r1, #9
 1620 0060 0E00008A 		bhi	.L155
 356:Include/benchmark.h ****         }
 1621              		.loc 3 356 13 is_stmt 1 view .LVU463
 356:Include/benchmark.h ****         }
 1622              		.loc 3 356 35 is_stmt 0 view .LVU464
 1623 0064 301081E2 		add	r1, r1, #48
 1624              	.LVL112:
 1625              	.LBB521:
 1626              	.LBI521:
 220:Include/benchmark.h **** {
 1627              		.loc 3 220 7 is_stmt 1 view .LVU465
 1628              	.LBB522:
 222:Include/benchmark.h ****     return 0;
 1629              		.loc 3 222 5 view .LVU466
 222:Include/benchmark.h ****     return 0;
 1630              		.loc 3 222 5 view .LVU467
 1631              	.L156:
 222:Include/benchmark.h ****     return 0;
 1632              		.loc 3 222 5 discriminator 1 view .LVU468
 1633 0068 2C2093E5 		ldr	r2, [r3, #44]
ARM GAS  C:\Users\even\AppData\Local\Temp\ccu0RqlP.s 			page 60


 1634 006c 080012E3 		tst	r2, #8
 1635 0070 FCFFFF0A 		beq	.L156
 1636              	.LVL113:
 1637              	.L175:
 222:Include/benchmark.h ****     return 0;
 1638              		.loc 3 222 5 is_stmt 0 discriminator 1 view .LVU469
 1639              	.LBE522:
 1640              	.LBE521:
 1641              	.LBB523:
 1642              	.LBB518:
 222:Include/benchmark.h ****     return 0;
 1643              		.loc 3 222 5 is_stmt 1 discriminator 2 view .LVU470
 1644              	.LBE518:
 1645              	.LBE523:
 349:Include/benchmark.h ****     {
 1646              		.loc 3 349 16 is_stmt 0 view .LVU471
 1647 0074 00005CE3 		cmp	ip, #0
 1648              	.LBB524:
 1649              	.LBB519:
 222:Include/benchmark.h ****     return 0;
 1650              		.loc 3 222 5 discriminator 2 view .LVU472
 1651 0078 301083E5 		str	r1, [r3, #48]
 222:Include/benchmark.h ****     return 0;
 1652              		.loc 3 222 5 is_stmt 1 view .LVU473
 223:Include/benchmark.h **** }
 1653              		.loc 3 223 5 view .LVU474
 223:Include/benchmark.h **** }
 1654              		.loc 3 223 5 is_stmt 0 view .LVU475
 1655              	.LBE519:
 1656              	.LBE524:
 349:Include/benchmark.h ****     {
 1657              		.loc 3 349 16 is_stmt 1 view .LVU476
 1658 007c F2FFFF1A 		bne	.L159
 1659 0080 04F09DE4 		ldr	pc, [sp], #4
 1660              	.LVL114:
 1661              	.L150:
 1662              	.LBB525:
 1663              	.LBB515:
 1664              	.LBB514:
 1665              	.LBB513:
 222:Include/benchmark.h ****     return 0;
 1666              		.loc 3 222 5 discriminator 1 view .LVU477
 1667 0084 2C3092E5 		ldr	r3, [r2, #44]
 1668 0088 080013E3 		tst	r3, #8
 1669 008c FCFFFF0A 		beq	.L150
 222:Include/benchmark.h ****     return 0;
 1670              		.loc 3 222 5 discriminator 2 view .LVU478
 1671 0090 3030A0E3 		mov	r3, #48
 1672 0094 0100A0E3 		mov	r0, #1
 1673              	.LVL115:
 222:Include/benchmark.h ****     return 0;
 1674              		.loc 3 222 5 is_stmt 0 discriminator 2 view .LVU479
 1675 0098 303082E5 		str	r3, [r2, #48]
 222:Include/benchmark.h ****     return 0;
 1676              		.loc 3 222 5 is_stmt 1 view .LVU480
 223:Include/benchmark.h **** }
 1677              		.loc 3 223 5 view .LVU481
ARM GAS  C:\Users\even\AppData\Local\Temp\ccu0RqlP.s 			page 61


 1678              	.LBE513:
 1679              	.LBE514:
 249:Include/benchmark.h ****     }
 1680              		.loc 3 249 9 view .LVU482
 1681 009c 04F09DE4 		ldr	pc, [sp], #4
 1682              	.LVL116:
 1683              	.L155:
 249:Include/benchmark.h ****     }
 1684              		.loc 3 249 9 is_stmt 0 view .LVU483
 1685              	.LBE515:
 1686              	.LBE525:
 361:Include/benchmark.h ****         }
 1687              		.loc 3 361 13 is_stmt 1 view .LVU484
 361:Include/benchmark.h ****         }
 1688              		.loc 3 361 39 is_stmt 0 view .LVU485
 1689 00a0 371081E2 		add	r1, r1, #55
 1690              	.LVL117:
 1691              	.LBB526:
 1692              	.LBI516:
 220:Include/benchmark.h **** {
 1693              		.loc 3 220 7 is_stmt 1 view .LVU486
 1694              	.LBB520:
 222:Include/benchmark.h ****     return 0;
 1695              		.loc 3 222 5 view .LVU487
 222:Include/benchmark.h ****     return 0;
 1696              		.loc 3 222 5 view .LVU488
 1697              	.L158:
 222:Include/benchmark.h ****     return 0;
 1698              		.loc 3 222 5 discriminator 1 view .LVU489
 1699 00a4 2C2093E5 		ldr	r2, [r3, #44]
 1700 00a8 080012E3 		tst	r2, #8
 1701 00ac FCFFFF0A 		beq	.L158
 1702 00b0 EFFFFFEA 		b	.L175
 1703              	.LBE520:
 1704              	.LBE526:
 1705              		.cfi_endproc
 1706              	.LFE2:
 1708              		.section	.text.USR_DBG_S,"ax",%progbits
 1709              		.align	2
 1710              		.global	USR_DBG_S
 1711              		.syntax unified
 1712              		.arm
 1714              	USR_DBG_S:
 1715              	.LVL118:
 1716              	.LFB3:
 369:Include/benchmark.h ****     ptr_t Count;
 1717              		.loc 3 369 1 view -0
 1718              		.cfi_startproc
 1719              		@ args = 0, pretend = 0, frame = 0
 1720              		@ frame_needed = 0, uses_anonymous_args = 0
 1721              		@ link register save eliminated.
 370:Include/benchmark.h **** 
 1722              		.loc 3 370 5 view .LVU491
 372:Include/benchmark.h ****     {
 1723              		.loc 3 372 5 view .LVU492
 372:Include/benchmark.h ****     {
 1724              		.loc 3 372 23 discriminator 1 view .LVU493
ARM GAS  C:\Users\even\AppData\Local\Temp\ccu0RqlP.s 			page 62


 1725              	.LBB527:
 1726              	.LBB528:
 222:Include/benchmark.h ****     return 0;
 1727              		.loc 3 222 5 is_stmt 0 discriminator 1 view .LVU494
 1728 0000 012AA0E3 		mov	r2, #4096
 1729 0004 01C040E2 		sub	ip, r0, #1
 1730 0008 00204EE3 		movt	r2, 57344
 1731              	.LBE528:
 1732              	.LBE527:
 372:Include/benchmark.h ****     {
 1733              		.loc 3 372 14 view .LVU495
 1734 000c 0000A0E3 		mov	r0, #0
 1735              	.LVL119:
 1736              	.L179:
 374:Include/benchmark.h ****         {
 1737              		.loc 3 374 9 is_stmt 1 view .LVU496
 374:Include/benchmark.h ****         {
 1738              		.loc 3 374 18 is_stmt 0 view .LVU497
 1739 0010 D110FCE1 		ldrsb	r1, [ip, #1]!
 374:Include/benchmark.h ****         {
 1740              		.loc 3 374 11 view .LVU498
 1741 0014 000051E3 		cmp	r1, #0
 1742 0018 1EFF2F01 		bxeq	lr
 1743              	.L178:
 1744              	.LBB531:
 1745              	.LBB529:
 222:Include/benchmark.h ****     return 0;
 1746              		.loc 3 222 5 is_stmt 1 discriminator 1 view .LVU499
 1747 001c 2C3092E5 		ldr	r3, [r2, #44]
 1748 0020 080013E3 		tst	r3, #8
 1749 0024 FCFFFF0A 		beq	.L178
 222:Include/benchmark.h ****     return 0;
 1750              		.loc 3 222 5 discriminator 2 view .LVU500
 1751              	.LBE529:
 1752              	.LBE531:
 372:Include/benchmark.h ****     {
 1753              		.loc 3 372 33 is_stmt 0 discriminator 2 view .LVU501
 1754 0028 010080E2 		add	r0, r0, #1
 1755              	.LVL120:
 1756              	.LBB532:
 1757              	.LBB530:
 222:Include/benchmark.h ****     return 0;
 1758              		.loc 3 222 5 discriminator 2 view .LVU502
 1759 002c 301082E5 		str	r1, [r2, #48]
 222:Include/benchmark.h ****     return 0;
 1760              		.loc 3 222 5 is_stmt 1 view .LVU503
 223:Include/benchmark.h **** }
 1761              		.loc 3 223 5 view .LVU504
 1762              	.LBE530:
 1763              	.LBE532:
 372:Include/benchmark.h ****     {
 1764              		.loc 3 372 33 discriminator 2 view .LVU505
 1765              	.LVL121:
 372:Include/benchmark.h ****     {
 1766              		.loc 3 372 23 discriminator 1 view .LVU506
 1767 0030 FF0050E3 		cmp	r0, #255
 1768 0034 F5FFFF1A 		bne	.L179
ARM GAS  C:\Users\even\AppData\Local\Temp\ccu0RqlP.s 			page 63


 1769 0038 1EFF2FE1 		bx	lr
 1770              		.cfi_endproc
 1771              	.LFE3:
 1773              		.section	.text.get_time,"ax",%progbits
 1774              		.align	2
 1775              		.global	get_time
 1776              		.syntax unified
 1777              		.arm
 1779              	get_time:
 1780              	.LFB4:
 392:Include/benchmark.h **** 	ptr_t temp;
 1781              		.loc 3 392 1 view -0
 1782              		.cfi_startproc
 1783              		@ args = 0, pretend = 0, frame = 0
 1784              		@ frame_needed = 0, uses_anonymous_args = 0
 1785              		@ link register save eliminated.
 393:Include/benchmark.h **** 	temp=RME_A7A_REG(&RME_A7A_GTWD_GTCR0);
 1786              		.loc 3 393 2 view .LVU508
 394:Include/benchmark.h **** 	return temp;
 1787              		.loc 3 394 2 view .LVU509
 394:Include/benchmark.h **** 	return temp;
 1788              		.loc 3 394 6 is_stmt 0 view .LVU510
 1789 0000 0030A0E3 		mov	r3, #0
 1790 0004 F0384FE3 		movt	r3, 63728
 1791 0008 000293E5 		ldr	r0, [r3, #512]
 1792              	.LVL122:
 1793              		.loc 3 395 2 is_stmt 1 view .LVU511
 396:Include/benchmark.h ****     /*USR_DBG_S("\r\n time=");
 397:Include/benchmark.h **** 	double time =(double)temp/RME_A7A_SYSTICK_VAL;
 398:Include/benchmark.h **** 	time =time*1000;
 399:Include/benchmark.h ****     USR_DBG_I(time);
 400:Include/benchmark.h ****     USR_DBG_S(" ms");*/
 401:Include/benchmark.h **** }
 1794              		.loc 3 401 1 is_stmt 0 view .LVU512
 1795 000c 1EFF2FE1 		bx	lr
 1796              		.cfi_endproc
 1797              	.LFE4:
 1799              		.section	.text.RME_Thd_Crt,"ax",%progbits
 1800              		.align	2
 1801              		.global	RME_Thd_Crt
 1802              		.syntax unified
 1803              		.arm
 1805              	RME_Thd_Crt:
 1806              	.LVL123:
 1807              	.LFB5:
  29:Include/sys.h ****     return RME_SVC(RME_THD_SVC(Attr,0U,RME_SVC_THD_CRT),
 1808              		.loc 2 29 1 is_stmt 1 view -0
 1809              		.cfi_startproc
 1810              		@ args = 12, pretend = 0, frame = 0
 1811              		@ frame_needed = 0, uses_anonymous_args = 0
  30:Include/sys.h ****                    Cap_Cpt,
 1812              		.loc 2 30 5 view .LVU514
  29:Include/sys.h ****     return RME_SVC(RME_THD_SVC(Attr,0U,RME_SVC_THD_CRT),
 1813              		.loc 2 29 1 is_stmt 0 view .LVU515
 1814 0000 04E02DE5 		str	lr, [sp, #-4]!
 1815              		.cfi_def_cfa_offset 4
 1816              		.cfi_offset 14, -4
ARM GAS  C:\Users\even\AppData\Local\Temp\ccu0RqlP.s 			page 64


  30:Include/sys.h ****                    Cap_Cpt,
 1817              		.loc 2 30 12 view .LVU516
 1818 0004 7220FFE6 		uxth	r2, r2
 1819              	.LVL124:
  29:Include/sys.h ****     return RME_SVC(RME_THD_SVC(Attr,0U,RME_SVC_THD_CRT),
 1820              		.loc 2 29 1 view .LVU517
 1821 0008 0CC09DE5 		ldr	ip, [sp, #12]
 1822 000c 03E0A0E1 		mov	lr, r3
  30:Include/sys.h ****                    Cap_Cpt,
 1823              		.loc 2 30 12 view .LVU518
 1824 0010 011882E1 		orr	r1, r2, r1, lsl #16
 1825              	.LVL125:
  30:Include/sys.h ****                    Cap_Cpt,
 1826              		.loc 2 30 12 view .LVU519
 1827 0014 B420DDE1 		ldrh	r2, [sp, #4]
 1828 0018 08309DE5 		ldr	r3, [sp, #8]
 1829              	.LVL126:
  30:Include/sys.h ****                    Cap_Cpt,
 1830              		.loc 2 30 12 view .LVU520
 1831 001c 8C0B80E1 		orr	r0, r0, ip, lsl #23
 1832              	.LVL127:
  30:Include/sys.h ****                    Cap_Cpt,
 1833              		.loc 2 30 12 view .LVU521
 1834 0020 0E2882E1 		orr	r2, r2, lr, lsl #16
 1835 0024 190880E3 		orr	r0, r0, #1638400
  35:Include/sys.h **** /* End Function:RME_Thd_Crt **************************************************/
 1836              		.loc 2 35 1 view .LVU522
 1837 0028 04E09DE4 		ldr	lr, [sp], #4
 1838              		.cfi_restore 14
 1839              		.cfi_def_cfa_offset 0
 1840              	.LVL128:
  30:Include/sys.h ****                    Cap_Cpt,
 1841              		.loc 2 30 12 view .LVU523
 1842 002c FEFFFFEA 		b	RME_Svc
 1843              	.LVL129:
 1844              		.cfi_endproc
 1845              	.LFE5:
 1847              		.section	.text.RME_Thd_Exec_Set,"ax",%progbits
 1848              		.align	2
 1849              		.global	RME_Thd_Exec_Set
 1850              		.syntax unified
 1851              		.arm
 1853              	RME_Thd_Exec_Set:
 1854              	.LVL130:
 1855              	.LFB6:
  53:Include/sys.h ****     return RME_SVC(RME_SVC_THD_EXEC_SET,
 1856              		.loc 2 53 1 is_stmt 1 view -0
 1857              		.cfi_startproc
 1858              		@ args = 0, pretend = 0, frame = 0
 1859              		@ frame_needed = 0, uses_anonymous_args = 0
 1860              		@ link register save eliminated.
  54:Include/sys.h ****                    Cap_Thd,
 1861              		.loc 2 54 5 view .LVU525
  54:Include/sys.h ****                    Cap_Thd,
 1862              		.loc 2 54 12 is_stmt 0 view .LVU526
 1863 0000 060880E3 		orr	r0, r0, #393216
 1864              	.LVL131:
ARM GAS  C:\Users\even\AppData\Local\Temp\ccu0RqlP.s 			page 65


  54:Include/sys.h ****                    Cap_Thd,
 1865              		.loc 2 54 12 view .LVU527
 1866 0004 FEFFFFEA 		b	RME_Svc
 1867              	.LVL132:
  54:Include/sys.h ****                    Cap_Thd,
 1868              		.loc 2 54 12 view .LVU528
 1869              		.cfi_endproc
 1870              	.LFE6:
 1872              		.section	.text.RME_Thd_Time_Xfer,"ax",%progbits
 1873              		.align	2
 1874              		.global	RME_Thd_Time_Xfer
 1875              		.syntax unified
 1876              		.arm
 1878              	RME_Thd_Time_Xfer:
 1879              	.LVL133:
 1880              	.LFB7:
  91:Include/sys.h ****     return RME_SVC(RME_SVC_THD_TIME_XFER,
 1881              		.loc 2 91 1 is_stmt 1 view -0
 1882              		.cfi_startproc
 1883              		@ args = 0, pretend = 0, frame = 0
 1884              		@ frame_needed = 0, uses_anonymous_args = 0
 1885              		@ link register save eliminated.
  92:Include/sys.h ****                    0U,
 1886              		.loc 2 92 5 view .LVU530
  91:Include/sys.h ****     return RME_SVC(RME_SVC_THD_TIME_XFER,
 1887              		.loc 2 91 1 is_stmt 0 view .LVU531
 1888 0000 01C0A0E1 		mov	ip, r1
 1889 0004 0230A0E1 		mov	r3, r2
  92:Include/sys.h ****                    0U,
 1890              		.loc 2 92 12 view .LVU532
 1891 0008 0010A0E1 		mov	r1, r0
 1892              	.LVL134:
  92:Include/sys.h ****                    0U,
 1893              		.loc 2 92 12 view .LVU533
 1894 000c 0C20A0E1 		mov	r2, ip
 1895              	.LVL135:
  92:Include/sys.h ****                    0U,
 1896              		.loc 2 92 12 view .LVU534
 1897 0010 0207A0E3 		mov	r0, #524288
 1898              	.LVL136:
  92:Include/sys.h ****                    0U,
 1899              		.loc 2 92 12 view .LVU535
 1900 0014 FEFFFFEA 		b	RME_Svc
 1901              	.LVL137:
  92:Include/sys.h ****                    0U,
 1902              		.loc 2 92 12 view .LVU536
 1903              		.cfi_endproc
 1904              	.LFE7:
 1906              		.section	.text.RME_Thd_Sched_Bind,"ax",%progbits
 1907              		.align	2
 1908              		.global	RME_Thd_Sched_Bind
 1909              		.syntax unified
 1910              		.arm
 1912              	RME_Thd_Sched_Bind:
 1913              	.LVL138:
 1914              	.LFB8:
 142:Include/sys.h ****     return RME_SVC(RME_SVC_THD_SCHED_BIND,
ARM GAS  C:\Users\even\AppData\Local\Temp\ccu0RqlP.s 			page 66


 1915              		.loc 2 142 1 is_stmt 1 view -0
 1916              		.cfi_startproc
 1917              		@ args = 8, pretend = 0, frame = 0
 1918              		@ frame_needed = 0, uses_anonymous_args = 0
 143:Include/sys.h ****                    Cap_Thd,
 1919              		.loc 2 143 5 view .LVU538
 142:Include/sys.h ****     return RME_SVC(RME_SVC_THD_SCHED_BIND,
 1920              		.loc 2 142 1 is_stmt 0 view .LVU539
 1921 0000 04E02DE5 		str	lr, [sp, #-4]!
 1922              		.cfi_def_cfa_offset 4
 1923              		.cfi_offset 14, -4
 142:Include/sys.h ****     return RME_SVC(RME_SVC_THD_SCHED_BIND,
 1924              		.loc 2 142 1 view .LVU540
 1925 0004 02C0A0E1 		mov	ip, r2
 143:Include/sys.h ****                    Cap_Thd,
 1926              		.loc 2 143 12 view .LVU541
 1927 0008 B4E0DDE1 		ldrh	lr, [sp, #4]
 1928 000c 7CC0FFE6 		uxth	ip, ip
 1929 0010 1B0880E3 		orr	r0, r0, #1769472
 1930              	.LVL139:
 143:Include/sys.h ****                    Cap_Thd,
 1931              		.loc 2 143 12 view .LVU542
 1932 0014 01188CE1 		orr	r1, ip, r1, lsl #16
 1933              	.LVL140:
 143:Include/sys.h ****                    Cap_Thd,
 1934              		.loc 2 143 12 view .LVU543
 1935 0018 03288EE1 		orr	r2, lr, r3, lsl #16
 1936              	.LVL141:
 143:Include/sys.h ****                    Cap_Thd,
 1937              		.loc 2 143 12 view .LVU544
 1938 001c 08309DE5 		ldr	r3, [sp, #8]
 1939              	.LVL142:
 148:Include/sys.h **** /* End Function:RME_Thd_Sched_Bind *******************************************/
 1940              		.loc 2 148 1 view .LVU545
 1941 0020 04E09DE4 		ldr	lr, [sp], #4
 1942              		.cfi_restore 14
 1943              		.cfi_def_cfa_offset 0
 143:Include/sys.h ****                    Cap_Thd,
 1944              		.loc 2 143 12 view .LVU546
 1945 0024 FEFFFFEA 		b	RME_Svc
 1946              	.LVL143:
 1947              		.cfi_endproc
 1948              	.LFE8:
 1950              		.section	.text.RME_Thd_Swt,"ax",%progbits
 1951              		.align	2
 1952              		.global	RME_Thd_Swt
 1953              		.syntax unified
 1954              		.arm
 1956              	RME_Thd_Swt:
 1957              	.LVL144:
 1958              	.LFB9:
 169:Include/sys.h ****     return RME_SVC(RME_SVC_THD_SWT,
 1959              		.loc 2 169 1 is_stmt 1 view -0
 1960              		.cfi_startproc
 1961              		@ args = 0, pretend = 0, frame = 0
 1962              		@ frame_needed = 0, uses_anonymous_args = 0
 1963              		@ link register save eliminated.
ARM GAS  C:\Users\even\AppData\Local\Temp\ccu0RqlP.s 			page 67


 170:Include/sys.h ****                    0U,
 1964              		.loc 2 170 5 view .LVU548
 169:Include/sys.h ****     return RME_SVC(RME_SVC_THD_SWT,
 1965              		.loc 2 169 1 is_stmt 0 view .LVU549
 1966 0000 0120A0E1 		mov	r2, r1
 170:Include/sys.h ****                    0U,
 1967              		.loc 2 170 12 view .LVU550
 1968 0004 0030A0E3 		mov	r3, #0
 1969 0008 0010A0E1 		mov	r1, r0
 1970              	.LVL145:
 170:Include/sys.h ****                    0U,
 1971              		.loc 2 170 12 view .LVU551
 1972 000c 0908A0E3 		mov	r0, #589824
 1973              	.LVL146:
 170:Include/sys.h ****                    0U,
 1974              		.loc 2 170 12 view .LVU552
 1975 0010 FEFFFFEA 		b	RME_Svc
 1976              	.LVL147:
 170:Include/sys.h ****                    0U,
 1977              		.loc 2 170 12 view .LVU553
 1978              		.cfi_endproc
 1979              	.LFE9:
 1981              		.section	.text.RME_Sig_Crt,"ax",%progbits
 1982              		.align	2
 1983              		.global	RME_Sig_Crt
 1984              		.syntax unified
 1985              		.arm
 1987              	RME_Sig_Crt:
 1988              	.LVL148:
 1989              	.LFB10:
 191:Include/sys.h ****     return RME_SVC(RME_SVC_SIG_CRT,
 1990              		.loc 2 191 1 is_stmt 1 view -0
 1991              		.cfi_startproc
 1992              		@ args = 0, pretend = 0, frame = 0
 1993              		@ frame_needed = 0, uses_anonymous_args = 0
 1994              		@ link register save eliminated.
 192:Include/sys.h ****                    Cap_Cpt,
 1995              		.loc 2 192 5 view .LVU555
 192:Include/sys.h ****                    Cap_Cpt,
 1996              		.loc 2 192 12 is_stmt 0 view .LVU556
 1997 0000 0030A0E3 		mov	r3, #0
 1998 0004 1D0880E3 		orr	r0, r0, #1900544
 1999              	.LVL149:
 192:Include/sys.h ****                    Cap_Cpt,
 2000              		.loc 2 192 12 view .LVU557
 2001 0008 0320A0E1 		mov	r2, r3
 2002 000c FEFFFFEA 		b	RME_Svc
 2003              	.LVL150:
 192:Include/sys.h ****                    Cap_Cpt,
 2004              		.loc 2 192 12 view .LVU558
 2005              		.cfi_endproc
 2006              	.LFE10:
 2008              		.section	.text.RME_Sig_Del,"ax",%progbits
 2009              		.align	2
 2010              		.global	RME_Sig_Del
 2011              		.syntax unified
 2012              		.arm
ARM GAS  C:\Users\even\AppData\Local\Temp\ccu0RqlP.s 			page 68


 2014              	RME_Sig_Del:
 2015              	.LVL151:
 2016              	.LFB11:
 211:Include/sys.h ****     return RME_SVC(RME_SVC_SIG_DEL,
 2017              		.loc 2 211 1 is_stmt 1 view -0
 2018              		.cfi_startproc
 2019              		@ args = 0, pretend = 0, frame = 0
 2020              		@ frame_needed = 0, uses_anonymous_args = 0
 2021              		@ link register save eliminated.
 212:Include/sys.h ****                    Cap_Cpt,
 2022              		.loc 2 212 5 view .LVU560
 212:Include/sys.h ****                    Cap_Cpt,
 2023              		.loc 2 212 12 is_stmt 0 view .LVU561
 2024 0000 0030A0E3 		mov	r3, #0
 2025 0004 1E0880E3 		orr	r0, r0, #1966080
 2026              	.LVL152:
 212:Include/sys.h ****                    Cap_Cpt,
 2027              		.loc 2 212 12 view .LVU562
 2028 0008 0320A0E1 		mov	r2, r3
 2029 000c FEFFFFEA 		b	RME_Svc
 2030              	.LVL153:
 212:Include/sys.h ****                    Cap_Cpt,
 2031              		.loc 2 212 12 view .LVU563
 2032              		.cfi_endproc
 2033              	.LFE11:
 2035              		.section	.text.RME_Sig_Snd,"ax",%progbits
 2036              		.align	2
 2037              		.global	RME_Sig_Snd
 2038              		.syntax unified
 2039              		.arm
 2041              	RME_Sig_Snd:
 2042              	.LVL154:
 2043              	.LFB12:
 228:Include/sys.h ****     return RME_SVC(RME_SVC_SIG_SND,
 2044              		.loc 2 228 1 is_stmt 1 view -0
 2045              		.cfi_startproc
 2046              		@ args = 0, pretend = 0, frame = 0
 2047              		@ frame_needed = 0, uses_anonymous_args = 0
 2048              		@ link register save eliminated.
 229:Include/sys.h ****                    0U,
 2049              		.loc 2 229 5 view .LVU565
 228:Include/sys.h ****     return RME_SVC(RME_SVC_SIG_SND,
 2050              		.loc 2 228 1 is_stmt 0 view .LVU566
 2051 0000 0010A0E1 		mov	r1, r0
 229:Include/sys.h ****                    0U,
 2052              		.loc 2 229 12 view .LVU567
 2053 0004 0030A0E3 		mov	r3, #0
 2054 0008 0120A0E3 		mov	r2, #1
 2055 000c 0208A0E3 		mov	r0, #131072
 2056              	.LVL155:
 229:Include/sys.h ****                    0U,
 2057              		.loc 2 229 12 view .LVU568
 2058 0010 FEFFFFEA 		b	RME_Svc
 2059              	.LVL156:
 229:Include/sys.h ****                    0U,
 2060              		.loc 2 229 12 view .LVU569
 2061              		.cfi_endproc
ARM GAS  C:\Users\even\AppData\Local\Temp\ccu0RqlP.s 			page 69


 2062              	.LFE12:
 2064              		.section	.text.RME_Sig_Rcv,"ax",%progbits
 2065              		.align	2
 2066              		.global	RME_Sig_Rcv
 2067              		.syntax unified
 2068              		.arm
 2070              	RME_Sig_Rcv:
 2071              	.LVL157:
 2072              	.LFB13:
 255:Include/sys.h ****     return RME_SVC(RME_SVC_SIG_RCV,
 2073              		.loc 2 255 1 is_stmt 1 view -0
 2074              		.cfi_startproc
 2075              		@ args = 0, pretend = 0, frame = 0
 2076              		@ frame_needed = 0, uses_anonymous_args = 0
 2077              		@ link register save eliminated.
 256:Include/sys.h ****                    0U,
 2078              		.loc 2 256 5 view .LVU571
 255:Include/sys.h ****     return RME_SVC(RME_SVC_SIG_RCV,
 2079              		.loc 2 255 1 is_stmt 0 view .LVU572
 2080 0000 0120A0E1 		mov	r2, r1
 256:Include/sys.h ****                    0U,
 2081              		.loc 2 256 12 view .LVU573
 2082 0004 0030A0E3 		mov	r3, #0
 2083 0008 0010A0E1 		mov	r1, r0
 2084              	.LVL158:
 256:Include/sys.h ****                    0U,
 2085              		.loc 2 256 12 view .LVU574
 2086 000c 0308A0E3 		mov	r0, #196608
 2087              	.LVL159:
 256:Include/sys.h ****                    0U,
 2088              		.loc 2 256 12 view .LVU575
 2089 0010 FEFFFFEA 		b	RME_Svc
 2090              	.LVL160:
 256:Include/sys.h ****                    0U,
 2091              		.loc 2 256 12 view .LVU576
 2092              		.cfi_endproc
 2093              	.LFE13:
 2095              		.section	.text.RME_Prc_Crt,"ax",%progbits
 2096              		.align	2
 2097              		.global	RME_Prc_Crt
 2098              		.syntax unified
 2099              		.arm
 2101              	RME_Prc_Crt:
 2102              	.LVL161:
 2103              	.LFB14:
 261:Include/sys.h **** }
 262:Include/sys.h **** /* Function:RME_Prc_Crt *******************************************************
 263:Include/sys.h **** Description : Create a process. A process is in fact a protection domain
 264:Include/sys.h ****               associated with a set of capabilities.
 265:Include/sys.h **** Input       : cid_t Cap_Cpt_Crt - The capability to the capability table to
 266:Include/sys.h ****                                       put this process capability in.
 267:Include/sys.h ****                                       2-Level.
 268:Include/sys.h ****               cid_t Cap_Prc - The capability slot that you want this newly
 269:Include/sys.h ****                                   created process capability to be in.
 270:Include/sys.h ****                                   1-Level.
 271:Include/sys.h ****               cid_t Cap_Cpt - The capability to the capability table to use
 272:Include/sys.h ****                                   for this process.
ARM GAS  C:\Users\even\AppData\Local\Temp\ccu0RqlP.s 			page 70


 273:Include/sys.h ****                                   2-Level.
 274:Include/sys.h ****               cid_t Cap_Pgt - The capability to the page table to use for
 275:Include/sys.h ****                                   this process.
 276:Include/sys.h ****                                   2-Level.
 277:Include/sys.h ****               ptr_t Raw_Pgt - Alternate user-supplied page table physical
 278:Include/sys.h ****                                   address.
 279:Include/sys.h **** Output      : None.
 280:Include/sys.h **** Return      : ret_t - If successful, 0; or an error code.
 281:Include/sys.h **** ******************************************************************************/
 282:Include/sys.h **** ret_t RME_Prc_Crt(cid_t Cap_Cpt_Crt,
 283:Include/sys.h ****                       cid_t Cap_Prc,
 284:Include/sys.h ****                       cid_t Cap_Cpt,
 285:Include/sys.h ****                       cid_t Cap_Pgt)
 286:Include/sys.h **** {
 2104              		.loc 2 286 1 is_stmt 1 view -0
 2105              		.cfi_startproc
 2106              		@ args = 0, pretend = 0, frame = 0
 2107              		@ frame_needed = 0, uses_anonymous_args = 0
 2108              		@ link register save eliminated.
 287:Include/sys.h ****     return RME_SVC(RME_SVC_PRC_CRT,
 2109              		.loc 2 287 5 view .LVU578
 2110              		.loc 2 287 12 is_stmt 0 view .LVU579
 2111 0000 150880E3 		orr	r0, r0, #1376256
 2112              	.LVL162:
 2113              		.loc 2 287 12 view .LVU580
 2114 0004 FEFFFFEA 		b	RME_Svc
 2115              	.LVL163:
 2116              		.loc 2 287 12 view .LVU581
 2117              		.cfi_endproc
 2118              	.LFE14:
 2120              		.section	.text.RME_Prc_Del,"ax",%progbits
 2121              		.align	2
 2122              		.global	RME_Prc_Del
 2123              		.syntax unified
 2124              		.arm
 2126              	RME_Prc_Del:
 2127              	.LVL164:
 2128              	.LFB15:
 288:Include/sys.h ****                    Cap_Cpt_Crt,
 289:Include/sys.h ****                    Cap_Prc,
 290:Include/sys.h ****                    Cap_Cpt,
 291:Include/sys.h ****                    Cap_Pgt);
 292:Include/sys.h **** }
 293:Include/sys.h **** /* End Function:RME_Prc_Crt **************************************************/
 294:Include/sys.h **** 
 295:Include/sys.h **** /* Function:RME_Prc_Del *******************************************************
 296:Include/sys.h **** Description : Delete a process.
 297:Include/sys.h **** Input       : cid_t Cap_Cpt - The capability to the capability table.
 298:Include/sys.h ****                                   2-Level.
 299:Include/sys.h ****               cid_t Cap_Prc - The capability to the process.
 300:Include/sys.h ****                                   1-Level.
 301:Include/sys.h **** Output      : None.
 302:Include/sys.h **** Return      : ret_t - If successful, 0; or an error code.
 303:Include/sys.h **** ******************************************************************************/
 304:Include/sys.h **** ret_t RME_Prc_Del(cid_t Cap_Cpt,
 305:Include/sys.h ****                       cid_t Cap_Prc)
 306:Include/sys.h **** {
ARM GAS  C:\Users\even\AppData\Local\Temp\ccu0RqlP.s 			page 71


 2129              		.loc 2 306 1 is_stmt 1 view -0
 2130              		.cfi_startproc
 2131              		@ args = 0, pretend = 0, frame = 0
 2132              		@ frame_needed = 0, uses_anonymous_args = 0
 2133              		@ link register save eliminated.
 307:Include/sys.h ****     return RME_SVC(RME_SVC_PRC_DEL,
 2134              		.loc 2 307 5 view .LVU583
 2135              		.loc 2 307 12 is_stmt 0 view .LVU584
 2136 0000 0030A0E3 		mov	r3, #0
 2137 0004 160880E3 		orr	r0, r0, #1441792
 2138              	.LVL165:
 2139              		.loc 2 307 12 view .LVU585
 2140 0008 0320A0E1 		mov	r2, r3
 2141 000c FEFFFFEA 		b	RME_Svc
 2142              	.LVL166:
 2143              		.loc 2 307 12 view .LVU586
 2144              		.cfi_endproc
 2145              	.LFE15:
 2147              		.section	.text.RME_Prc_Cpt,"ax",%progbits
 2148              		.align	2
 2149              		.global	RME_Prc_Cpt
 2150              		.syntax unified
 2151              		.arm
 2153              	RME_Prc_Cpt:
 2154              	.LVL167:
 2155              	.LFB16:
 308:Include/sys.h ****                    Cap_Cpt,
 309:Include/sys.h ****                    Cap_Prc,
 310:Include/sys.h ****                    0U,
 311:Include/sys.h ****                    0U);
 312:Include/sys.h **** }
 313:Include/sys.h **** /* End Function:RME_Prc_Del **************************************************/
 314:Include/sys.h **** 
 315:Include/sys.h **** /* Function:RME_Prc_Cpt *******************************************************
 316:Include/sys.h **** Description : Change a process's capability table.
 317:Include/sys.h **** Input       : cid_t Cap_Prc - The capability to the process that have been
 318:Include/sys.h ****                                   created already.
 319:Include/sys.h ****                                   2-Level.
 320:Include/sys.h ****               cid_t Cap_Cpt - The capability to the capability table to use
 321:Include/sys.h ****                                   for this process.
 322:Include/sys.h ****                                   2-Level.
 323:Include/sys.h **** Output      : None.
 324:Include/sys.h **** Return      : ret_t - If successful, 0; or an error code.
 325:Include/sys.h **** ******************************************************************************/
 326:Include/sys.h **** ret_t RME_Prc_Cpt(cid_t Cap_Prc,
 327:Include/sys.h ****                       cid_t Cap_Cpt)
 328:Include/sys.h **** {
 2156              		.loc 2 328 1 is_stmt 1 view -0
 2157              		.cfi_startproc
 2158              		@ args = 0, pretend = 0, frame = 0
 2159              		@ frame_needed = 0, uses_anonymous_args = 0
 2160              		@ link register save eliminated.
 329:Include/sys.h ****     return RME_SVC(RME_SVC_PRC_CPT,
 2161              		.loc 2 329 5 view .LVU588
 328:Include/sys.h ****     return RME_SVC(RME_SVC_PRC_CPT,
 2162              		.loc 2 328 1 is_stmt 0 view .LVU589
 2163 0000 0120A0E1 		mov	r2, r1
ARM GAS  C:\Users\even\AppData\Local\Temp\ccu0RqlP.s 			page 72


 2164              		.loc 2 329 12 view .LVU590
 2165 0004 0030A0E3 		mov	r3, #0
 2166 0008 0010A0E1 		mov	r1, r0
 2167              	.LVL168:
 2168              		.loc 2 329 12 view .LVU591
 2169 000c 1708A0E3 		mov	r0, #1507328
 2170              	.LVL169:
 2171              		.loc 2 329 12 view .LVU592
 2172 0010 FEFFFFEA 		b	RME_Svc
 2173              	.LVL170:
 2174              		.loc 2 329 12 view .LVU593
 2175              		.cfi_endproc
 2176              	.LFE16:
 2178              		.section	.text.RME_Prc_Pgt,"ax",%progbits
 2179              		.align	2
 2180              		.global	RME_Prc_Pgt
 2181              		.syntax unified
 2182              		.arm
 2184              	RME_Prc_Pgt:
 2185              	.LVL171:
 2186              	.LFB17:
 330:Include/sys.h ****                    0U,
 331:Include/sys.h ****                    Cap_Prc,
 332:Include/sys.h ****                    Cap_Cpt,
 333:Include/sys.h ****                    0U);
 334:Include/sys.h **** }
 335:Include/sys.h **** /* End Function:RME_Prc_Cpt **************************************************/
 336:Include/sys.h **** 
 337:Include/sys.h **** /* Function:RME_Prc_Pgt *******************************************************
 338:Include/sys.h **** Description : Change a process's page table.
 339:Include/sys.h **** Input       : cid_t Cap_Prc - The capability to the process that have been
 340:Include/sys.h ****                                   created already.
 341:Include/sys.h ****                                   2-Level.
 342:Include/sys.h ****               cid_t Cap_Pgt - The capability to the page table to use for
 343:Include/sys.h ****                                   this process.
 344:Include/sys.h ****                                   2-Level.
 345:Include/sys.h ****               ptr_t Raw_Pgt - Alternate user-supplied page table physical
 346:Include/sys.h ****                                   address.
 347:Include/sys.h **** Output      : None.
 348:Include/sys.h **** Return      : ret_t - If successful, 0; or an error code.
 349:Include/sys.h **** ******************************************************************************/
 350:Include/sys.h **** ret_t RME_Prc_Pgt(cid_t Cap_Prc,
 351:Include/sys.h ****                       cid_t Cap_Pgt)
 352:Include/sys.h **** {
 2187              		.loc 2 352 1 is_stmt 1 view -0
 2188              		.cfi_startproc
 2189              		@ args = 0, pretend = 0, frame = 0
 2190              		@ frame_needed = 0, uses_anonymous_args = 0
 2191              		@ link register save eliminated.
 353:Include/sys.h ****     return RME_SVC(RME_SVC_PRC_PGT,
 2192              		.loc 2 353 5 view .LVU595
 352:Include/sys.h ****     return RME_SVC(RME_SVC_PRC_PGT,
 2193              		.loc 2 352 1 is_stmt 0 view .LVU596
 2194 0000 0120A0E1 		mov	r2, r1
 2195              		.loc 2 353 12 view .LVU597
 2196 0004 0030A0E3 		mov	r3, #0
 2197 0008 0010A0E1 		mov	r1, r0
ARM GAS  C:\Users\even\AppData\Local\Temp\ccu0RqlP.s 			page 73


 2198              	.LVL172:
 2199              		.loc 2 353 12 view .LVU598
 2200 000c 0607A0E3 		mov	r0, #1572864
 2201              	.LVL173:
 2202              		.loc 2 353 12 view .LVU599
 2203 0010 FEFFFFEA 		b	RME_Svc
 2204              	.LVL174:
 2205              		.loc 2 353 12 view .LVU600
 2206              		.cfi_endproc
 2207              	.LFE17:
 2209              		.section	.text.RME_Pgt_Crt,"ax",%progbits
 2210              		.align	2
 2211              		.global	RME_Pgt_Crt
 2212              		.syntax unified
 2213              		.arm
 2215              	RME_Pgt_Crt:
 2216              	.LVL175:
 2217              	.LFB18:
 354:Include/sys.h ****                    0U,
 355:Include/sys.h ****                    Cap_Prc,
 356:Include/sys.h ****                    Cap_Pgt,
 357:Include/sys.h ****                    0U);
 358:Include/sys.h **** }
 359:Include/sys.h **** /* End Function:RME_Prc_Pgt **************************************************/
 360:Include/sys.h **** /* Function:RME_Pgt_Crt *******************************************************
 361:Include/sys.h **** Description : Create a page table.
 362:Include/sys.h **** Input       : cid_t Cap_Cpt - The capability table that contains the newly
 363:Include/sys.h ****                                   created cap to pgtbl.
 364:Include/sys.h ****                                   2-Level.
 365:Include/sys.h ****               cid_t Cap_Kom - The kernel memory capability.
 366:Include/sys.h ****                                   2-Level.
 367:Include/sys.h ****               cid_t Cap_Pgt - The capability slot that you want this newly
 368:Include/sys.h ****                                   created page table capability to be in.
 369:Include/sys.h ****                                   1-Level.
 370:Include/sys.h ****               ptr_t Raddr - The relative virtual address to store the page
 371:Include/sys.h ****                                 table kernel object.
 372:Include/sys.h ****               ptr_t Base - The virtual address to start mapping for this
 373:Include/sys.h ****                                page table. This address must be aligned to the
 374:Include/sys.h ****                                total size of the table.
 375:Include/sys.h ****               ptr_t Is_Top - Whether this page table is the top-level. If
 376:Include/sys.h ****                                  it is, we will map all the kernel page
 377:Include/sys.h ****                                  directories into this one.
 378:Include/sys.h ****               ptr_t Size_Order - The size order of the page table. The size
 379:Include/sys.h ****                                      refers to the size of each page in the
 380:Include/sys.h ****                                      page directory.
 381:Include/sys.h ****               ptr_t Num_Order - The number order of entries in the table.
 382:Include/sys.h **** Output      : None.
 383:Include/sys.h **** Return      : ret_t - If successful, 0; or an error code.
 384:Include/sys.h **** ******************************************************************************/
 385:Include/sys.h **** ret_t RME_Pgt_Crt(cid_t Cap_Cpt,
 386:Include/sys.h ****                       cid_t Cap_Kom,
 387:Include/sys.h ****                       cid_t Cap_Pgt,
 388:Include/sys.h ****                       ptr_t Raddr,
 389:Include/sys.h ****                       ptr_t Base,
 390:Include/sys.h ****                       ptr_t Is_Top,
 391:Include/sys.h ****                       ptr_t Size_Order,
 392:Include/sys.h ****                       ptr_t Num_Order)
ARM GAS  C:\Users\even\AppData\Local\Temp\ccu0RqlP.s 			page 74


 393:Include/sys.h **** {
 2218              		.loc 2 393 1 is_stmt 1 view -0
 2219              		.cfi_startproc
 2220              		@ args = 16, pretend = 0, frame = 0
 2221              		@ frame_needed = 0, uses_anonymous_args = 0
 394:Include/sys.h **** 
 395:Include/sys.h ****     return RME_SVC(RME_PGT_SVC(Num_Order,RME_SVC_PGT_CRT),
 2222              		.loc 2 395 5 view .LVU602
 393:Include/sys.h **** 
 2223              		.loc 2 393 1 is_stmt 0 view .LVU603
 2224 0000 04E02DE5 		str	lr, [sp, #-4]!
 2225              		.cfi_def_cfa_offset 4
 2226              		.cfi_offset 14, -4
 2227              		.loc 2 395 12 view .LVU604
 2228 0004 02C4A0E1 		lsl	ip, r2, #8
 2229 0008 0320A0E1 		mov	r2, r3
 2230              	.LVL176:
 393:Include/sys.h **** 
 2231              		.loc 2 393 1 view .LVU605
 2232 000c 10309DE5 		ldr	r3, [sp, #16]
 2233              	.LVL177:
 2234              		.loc 2 395 12 view .LVU606
 2235 0010 7CC0FFE6 		uxth	ip, ip
 393:Include/sys.h **** 
 2236              		.loc 2 393 1 view .LVU607
 2237 0014 04E09DE5 		ldr	lr, [sp, #4]
 2238              		.loc 2 395 12 view .LVU608
 2239 0018 01C88CE1 		orr	ip, ip, r1, lsl #16
 2240 001c 0C10DDE5 		ldrb	r1, [sp, #12]	@ zero_extendqisi2
 2241              	.LVL178:
 2242              		.loc 2 395 12 view .LVU609
 2243 0020 030C80E1 		orr	r0, r0, r3, lsl #24
 2244              	.LVL179:
 393:Include/sys.h **** 
 2245              		.loc 2 393 1 view .LVU610
 2246 0024 08309DE5 		ldr	r3, [sp, #8]
 2247              		.loc 2 395 12 view .LVU611
 2248 0028 01108CE1 		orr	r1, ip, r1
 2249 002c 0F0880E3 		orr	r0, r0, #983040
 2250 0030 03308EE1 		orr	r3, lr, r3
 396:Include/sys.h ****                    Cap_Cpt,
 397:Include/sys.h ****                    RME_PARAM_D1(Cap_Kom)|RME_PARAM_Q1(Cap_Pgt)|RME_PARAM_Q0(Size_Order),
 398:Include/sys.h ****                    Raddr,
 399:Include/sys.h ****                    Base|Is_Top);
 400:Include/sys.h **** }
 2251              		.loc 2 400 1 view .LVU612
 2252 0034 04E09DE4 		ldr	lr, [sp], #4
 2253              		.cfi_restore 14
 2254              		.cfi_def_cfa_offset 0
 395:Include/sys.h ****                    Cap_Cpt,
 2255              		.loc 2 395 12 view .LVU613
 2256 0038 FEFFFFEA 		b	RME_Svc
 2257              	.LVL180:
 395:Include/sys.h ****                    Cap_Cpt,
 2258              		.loc 2 395 12 view .LVU614
 2259              		.cfi_endproc
 2260              	.LFE18:
ARM GAS  C:\Users\even\AppData\Local\Temp\ccu0RqlP.s 			page 75


 2262              		.section	.text.RME_Pgt_Del,"ax",%progbits
 2263              		.align	2
 2264              		.global	RME_Pgt_Del
 2265              		.syntax unified
 2266              		.arm
 2268              	RME_Pgt_Del:
 2269              	.LVL181:
 2270              	.LFB19:
 401:Include/sys.h **** /* End Function:RME_Pgt_Crt **************************************************/
 402:Include/sys.h **** 
 403:Include/sys.h **** /* Function:RME_Pgt_Del *******************************************************
 404:Include/sys.h **** Description : Delete a page table.
 405:Include/sys.h **** Input       : cid_t Cap_Cpt - The capability to the captbl that may contain
 406:Include/sys.h ****                                   the cap to new captbl.
 407:Include/sys.h ****                                   2-Level.
 408:Include/sys.h ****               cid_t Cap_Pgt - The capability slot that you want this newly
 409:Include/sys.h ****                                   created page table capability to be in.
 410:Include/sys.h ****                                   1-Level.
 411:Include/sys.h **** Output      : None.
 412:Include/sys.h **** Return      : ret_t - If successful, 0; or an error code.
 413:Include/sys.h **** ******************************************************************************/
 414:Include/sys.h **** ret_t RME_Pgt_Del(cid_t Cap_Cpt,
 415:Include/sys.h ****                       cid_t Cap_Pgt)
 416:Include/sys.h **** {
 2271              		.loc 2 416 1 is_stmt 1 view -0
 2272              		.cfi_startproc
 2273              		@ args = 0, pretend = 0, frame = 0
 2274              		@ frame_needed = 0, uses_anonymous_args = 0
 2275              		@ link register save eliminated.
 417:Include/sys.h ****     return RME_SVC(RME_SVC_PGT_DEL,
 2276              		.loc 2 417 5 view .LVU616
 2277              		.loc 2 417 12 is_stmt 0 view .LVU617
 2278 0000 0030A0E3 		mov	r3, #0
 2279 0004 010680E3 		orr	r0, r0, #1048576
 2280              	.LVL182:
 2281              		.loc 2 417 12 view .LVU618
 2282 0008 0320A0E1 		mov	r2, r3
 2283 000c FEFFFFEA 		b	RME_Svc
 2284              	.LVL183:
 2285              		.loc 2 417 12 view .LVU619
 2286              		.cfi_endproc
 2287              	.LFE19:
 2289              		.section	.text.RME_Pgt_Add,"ax",%progbits
 2290              		.align	2
 2291              		.global	RME_Pgt_Add
 2292              		.syntax unified
 2293              		.arm
 2295              	RME_Pgt_Add:
 2296              	.LVL184:
 2297              	.LFB20:
 418:Include/sys.h ****                    Cap_Cpt,
 419:Include/sys.h ****                    Cap_Pgt,
 420:Include/sys.h ****                    0U,
 421:Include/sys.h ****                    0U);
 422:Include/sys.h **** }
 423:Include/sys.h **** /* End Function:RME_Pgt_Del **************************************************/
 424:Include/sys.h **** 
ARM GAS  C:\Users\even\AppData\Local\Temp\ccu0RqlP.s 			page 76


 425:Include/sys.h **** /* Function:RME_Pgt_Add *******************************************************
 426:Include/sys.h **** Description : Delegate a page from one page table to another. This is the only
 427:Include/sys.h ****               way to add pages to new page tables after the system boots.
 428:Include/sys.h **** Input       : cid_t Cap_Pgt_Dst - The capability to the destination page
 429:Include/sys.h ****                                       directory.
 430:Include/sys.h ****                                       2-Level.
 431:Include/sys.h ****               ptr_t Pos_Dst - The position to delegate to in the
 432:Include/sys.h ****                                   destination page directory.
 433:Include/sys.h ****               ptr_t Flag_Dst - The page access permission for the
 434:Include/sys.h ****                                    destination page.
 435:Include/sys.h ****               cid_t Cap_Pgt_Src - The capability to the source page
 436:Include/sys.h ****                                       directory.
 437:Include/sys.h ****                                       2-Level.
 438:Include/sys.h ****               ptr_t Pos_Dst - The position to delegate from in the source
 439:Include/sys.h ****                                   page directory.
 440:Include/sys.h ****               ptr_t Index - The index of the physical address frame to
 441:Include/sys.h ****                                 delegate. For example, if the destination
 442:Include/sys.h ****                                 directory's page size is 1/4 of that of the
 443:Include/sys.h ****                                 source directory, index=0 will delegate the
 444:Include/sys.h ****                                 first 1/4, index=1 will delegate the second
 445:Include/sys.h ****                                 1/4, index=2 will delegate the third 1/4, and
 446:Include/sys.h ****                                 index=3 will delegate the last 1/4.
 447:Include/sys.h ****                                 All other index values are illegal.
 448:Include/sys.h **** Output      : None.
 449:Include/sys.h **** Return      : ret_t - If successful, 0; or an error code.
 450:Include/sys.h **** ******************************************************************************/
 451:Include/sys.h **** ret_t RME_Pgt_Add(cid_t Cap_Pgt_Dst,
 452:Include/sys.h ****                       ptr_t Pos_Dst,
 453:Include/sys.h ****                       ptr_t Flag_Dst,
 454:Include/sys.h ****                       cid_t Cap_Pgt_Src,
 455:Include/sys.h ****                       ptr_t Pos_Src,
 456:Include/sys.h ****                       ptr_t Index)
 457:Include/sys.h **** {
 2298              		.loc 2 457 1 is_stmt 1 view -0
 2299              		.cfi_startproc
 2300              		@ args = 8, pretend = 0, frame = 0
 2301              		@ frame_needed = 0, uses_anonymous_args = 0
 458:Include/sys.h ****     return RME_SVC(RME_SVC_PGT_ADD,
 2302              		.loc 2 458 5 view .LVU621
 457:Include/sys.h ****     return RME_SVC(RME_SVC_PGT_ADD,
 2303              		.loc 2 457 1 is_stmt 0 view .LVU622
 2304 0000 04E02DE5 		str	lr, [sp, #-4]!
 2305              		.cfi_def_cfa_offset 4
 2306              		.cfi_offset 14, -4
 2307              		.loc 2 458 12 view .LVU623
 2308 0004 72C0FFE6 		uxth	ip, r2
 2309 0008 B4E0DDE1 		ldrh	lr, [sp, #4]
 2310 000c 7110FFE6 		uxth	r1, r1
 2311              	.LVL185:
 2312              		.loc 2 458 12 view .LVU624
 2313 0010 001881E1 		orr	r1, r1, r0, lsl #16
 2314 0014 11088CE3 		orr	r0, ip, #1114112
 2315              	.LVL186:
 2316              		.loc 2 458 12 view .LVU625
 2317 0018 03288EE1 		orr	r2, lr, r3, lsl #16
 2318              	.LVL187:
 2319              		.loc 2 458 12 view .LVU626
ARM GAS  C:\Users\even\AppData\Local\Temp\ccu0RqlP.s 			page 77


 2320 001c 08309DE5 		ldr	r3, [sp, #8]
 2321              	.LVL188:
 459:Include/sys.h ****                    RME_PARAM_D0(Flag_Dst),
 460:Include/sys.h ****                    RME_PARAM_D1(Cap_Pgt_Dst)|RME_PARAM_D0(Pos_Dst),
 461:Include/sys.h ****                    RME_PARAM_D1(Cap_Pgt_Src)|RME_PARAM_D0(Pos_Src),
 462:Include/sys.h ****                    Index);
 463:Include/sys.h **** }
 2322              		.loc 2 463 1 view .LVU627
 2323 0020 04E09DE4 		ldr	lr, [sp], #4
 2324              		.cfi_restore 14
 2325              		.cfi_def_cfa_offset 0
 458:Include/sys.h ****                    RME_PARAM_D0(Flag_Dst),
 2326              		.loc 2 458 12 view .LVU628
 2327 0024 FEFFFFEA 		b	RME_Svc
 2328              	.LVL189:
 2329              		.cfi_endproc
 2330              	.LFE20:
 2332              		.section	.text.RME_Inv_Crt,"ax",%progbits
 2333              		.align	2
 2334              		.global	RME_Inv_Crt
 2335              		.syntax unified
 2336              		.arm
 2338              	RME_Inv_Crt:
 2339              	.LVL190:
 2340              	.LFB21:
 464:Include/sys.h **** /* End Function:RME_Pgt_Add **************************************************/
 465:Include/sys.h **** 
 466:Include/sys.h **** ret_t RME_Inv_Crt(cid_t Cap_Cpt,
 467:Include/sys.h ****                       cid_t Cap_Kom,
 468:Include/sys.h ****                       cid_t Cap_Inv,
 469:Include/sys.h ****                       cid_t Cap_Prc,
 470:Include/sys.h ****                       ptr_t Raddr)
 471:Include/sys.h **** {
 2341              		.loc 2 471 1 is_stmt 1 view -0
 2342              		.cfi_startproc
 2343              		@ args = 4, pretend = 0, frame = 0
 2344              		@ frame_needed = 0, uses_anonymous_args = 0
 2345              		@ link register save eliminated.
 472:Include/sys.h ****     return RME_SVC(RME_SVC_INV_CRT,
 2346              		.loc 2 472 5 view .LVU630
 471:Include/sys.h ****     return RME_SVC(RME_SVC_INV_CRT,
 2347              		.loc 2 471 1 is_stmt 0 view .LVU631
 2348 0000 02C0A0E1 		mov	ip, r2
 2349              		.loc 2 472 12 view .LVU632
 2350 0004 1F0880E3 		orr	r0, r0, #2031616
 2351              	.LVL191:
 2352              		.loc 2 472 12 view .LVU633
 2353 0008 7CC0FFE6 		uxth	ip, ip
 471:Include/sys.h ****     return RME_SVC(RME_SVC_INV_CRT,
 2354              		.loc 2 471 1 view .LVU634
 2355 000c 0320A0E1 		mov	r2, r3
 2356              	.LVL192:
 2357              		.loc 2 472 12 view .LVU635
 2358 0010 00309DE5 		ldr	r3, [sp]
 2359              	.LVL193:
 2360              		.loc 2 472 12 view .LVU636
 2361 0014 01188CE1 		orr	r1, ip, r1, lsl #16
ARM GAS  C:\Users\even\AppData\Local\Temp\ccu0RqlP.s 			page 78


 2362              	.LVL194:
 2363              		.loc 2 472 12 view .LVU637
 2364 0018 FEFFFFEA 		b	RME_Svc
 2365              	.LVL195:
 2366              		.loc 2 472 12 view .LVU638
 2367              		.cfi_endproc
 2368              	.LFE21:
 2370              		.section	.text.RME_Inv_Set,"ax",%progbits
 2371              		.align	2
 2372              		.global	RME_Inv_Set
 2373              		.syntax unified
 2374              		.arm
 2376              	RME_Inv_Set:
 2377              	.LVL196:
 2378              	.LFB22:
 473:Include/sys.h ****                    Cap_Cpt,
 474:Include/sys.h ****                    RME_PARAM_D1(Cap_Kom)|RME_PARAM_D0(Cap_Inv),
 475:Include/sys.h ****                    Cap_Prc,
 476:Include/sys.h ****                    Raddr);
 477:Include/sys.h **** }
 478:Include/sys.h **** 
 479:Include/sys.h **** ret_t RME_Inv_Set(cid_t Cap_Inv,
 480:Include/sys.h ****                       ptr_t Entry,
 481:Include/sys.h ****                       ptr_t Stack,
 482:Include/sys.h ****                       ptr_t Is_Exc_Ret)
 483:Include/sys.h **** {
 2379              		.loc 2 483 1 is_stmt 1 view -0
 2380              		.cfi_startproc
 2381              		@ args = 0, pretend = 0, frame = 0
 2382              		@ frame_needed = 0, uses_anonymous_args = 0
 484:Include/sys.h ****     return RME_SVC(RME_SVC_INV_SET,
 2383              		.loc 2 484 5 view .LVU640
 2384              		.loc 2 484 12 is_stmt 0 view .LVU641
 2385 0000 7000FFE6 		uxth	r0, r0
 2386              	.LVL197:
 483:Include/sys.h ****     return RME_SVC(RME_SVC_INV_SET,
 2387              		.loc 2 483 1 view .LVU642
 2388 0004 03C0A0E1 		mov	ip, r3
 2389 0008 04E02DE5 		str	lr, [sp, #-4]!
 2390              		.cfi_def_cfa_offset 4
 2391              		.cfi_offset 14, -4
 483:Include/sys.h ****     return RME_SVC(RME_SVC_INV_SET,
 2392              		.loc 2 483 1 view .LVU643
 2393 000c 02E0A0E1 		mov	lr, r2
 2394              		.loc 2 484 12 view .LVU644
 2395 0010 0120A0E1 		mov	r2, r1
 2396              	.LVL198:
 2397              		.loc 2 484 12 view .LVU645
 2398 0014 0E30A0E1 		mov	r3, lr
 2399              	.LVL199:
 2400              		.loc 2 484 12 view .LVU646
 2401 0018 0C1880E1 		orr	r1, r0, ip, lsl #16
 2402              	.LVL200:
 485:Include/sys.h ****                    0U,
 486:Include/sys.h ****                    RME_PARAM_D1(Is_Exc_Ret)|RME_PARAM_D0(Cap_Inv),
 487:Include/sys.h ****                    Entry,
 488:Include/sys.h ****                    Stack);
ARM GAS  C:\Users\even\AppData\Local\Temp\ccu0RqlP.s 			page 79


 489:Include/sys.h **** }
 2403              		.loc 2 489 1 view .LVU647
 2404 001c 04E09DE4 		ldr	lr, [sp], #4
 2405              		.cfi_restore 14
 2406              		.cfi_def_cfa_offset 0
 2407              	.LVL201:
 484:Include/sys.h ****                    0U,
 2408              		.loc 2 484 12 view .LVU648
 2409 0020 2108A0E3 		mov	r0, #2162688
 2410 0024 FEFFFFEA 		b	RME_Svc
 2411              	.LVL202:
 484:Include/sys.h ****                    0U,
 2412              		.loc 2 484 12 view .LVU649
 2413              		.cfi_endproc
 2414              	.LFE22:
 2416              		.section	.text.RME_Thd_Create,"ax",%progbits
 2417              		.align	2
 2418              		.global	RME_Thd_Create
 2419              		.syntax unified
 2420              		.arm
 2422              	RME_Thd_Create:
 2423              	.LVL203:
 2424              	.LFB25:
  66:Source/rme_benchmark.c **** 	ret_t Retval;
 2425              		.loc 1 66 1 is_stmt 1 view -0
 2426              		.cfi_startproc
 2427              		@ args = 20, pretend = 0, frame = 0
 2428              		@ frame_needed = 0, uses_anonymous_args = 0
  67:Source/rme_benchmark.c **** 	cnt_t Count;
 2429              		.loc 1 67 2 view .LVU651
  68:Source/rme_benchmark.c **** 	ptr_t Stack_Addr;
 2430              		.loc 1 68 2 view .LVU652
  69:Source/rme_benchmark.c **** 	ptr_t Temp;
 2431              		.loc 1 69 2 view .LVU653
  70:Source/rme_benchmark.c **** 	/*USR_DBG_S("\r\n-----create a thread , TID= ");
 2432              		.loc 1 70 2 view .LVU654
  74:Source/rme_benchmark.c **** 
 2433              		.loc 1 74 2 view .LVU655
  66:Source/rme_benchmark.c **** 	ret_t Retval;
 2434              		.loc 1 66 1 is_stmt 0 view .LVU656
 2435 0000 F0472DE9 		push	{r4, r5, r6, r7, r8, r9, r10, lr}
 2436              		.cfi_def_cfa_offset 32
 2437              		.cfi_offset 4, -32
 2438              		.cfi_offset 5, -28
 2439              		.cfi_offset 6, -24
 2440              		.cfi_offset 7, -20
 2441              		.cfi_offset 8, -16
 2442              		.cfi_offset 9, -12
 2443              		.cfi_offset 10, -8
 2444              		.cfi_offset 14, -4
  66:Source/rme_benchmark.c **** 	ret_t Retval;
 2445              		.loc 1 66 1 view .LVU657
 2446 0004 28708DE2 		add	r7, sp, #40
 2447              	.LVL204:
  66:Source/rme_benchmark.c **** 	ret_t Retval;
 2448              		.loc 1 66 1 view .LVU658
 2449 0008 0140A0E1 		mov	r4, r1
ARM GAS  C:\Users\even\AppData\Local\Temp\ccu0RqlP.s 			page 80


 2450              	.LBB541:
 2451              	.LBB542:
  30:Include/sys.h ****                    Cap_Cpt,
 2452              		.loc 2 30 12 view .LVU659
 2453 000c 0008A0E1 		lsl	r0, r0, #16
 2454              	.LVL205:
  30:Include/sys.h ****                    Cap_Cpt,
 2455              		.loc 2 30 12 view .LVU660
 2456 0010 7110FFE6 		uxth	r1, r1
 2457              	.LVL206:
  30:Include/sys.h ****                    Cap_Cpt,
 2458              		.loc 2 30 12 view .LVU661
 2459              	.LBE542:
 2460              	.LBE541:
  66:Source/rme_benchmark.c **** 	ret_t Retval;
 2461              		.loc 1 66 1 view .LVU662
 2462 0014 0260A0E1 		mov	r6, r2
 2463 0018 800597E8 		ldm	r7, {r7, r8, r10}
 2464              	.LVL207:
  77:Source/rme_benchmark.c **** 					   Cap_Prc,RME_THD_PRIO_MAX,Raddr,0);
 2465              		.loc 1 77 2 is_stmt 1 view .LVU663
 2466              	.LBB546:
 2467              	.LBI541:
  22:Include/sys.h ****                       cid_t Cap_Kom,
 2468              		.loc 2 22 7 view .LVU664
 2469              	.LBB543:
  30:Include/sys.h ****                    Cap_Cpt,
 2470              		.loc 2 30 5 view .LVU665
  30:Include/sys.h ****                    Cap_Cpt,
 2471              		.loc 2 30 12 is_stmt 0 view .LVU666
 2472 001c 1F2080E3 		orr	r2, r0, #31
 2473              	.LVL208:
  30:Include/sys.h ****                    Cap_Cpt,
 2474              		.loc 2 30 12 view .LVU667
 2475              	.LBE543:
 2476              	.LBE546:
  66:Source/rme_benchmark.c **** 	ret_t Retval;
 2477              		.loc 1 66 1 view .LVU668
 2478 0020 0350A0E1 		mov	r5, r3
 2479              	.LBB547:
 2480              	.LBB544:
  30:Include/sys.h ****                    Cap_Cpt,
 2481              		.loc 2 30 12 view .LVU669
 2482 0024 051881E3 		orr	r1, r1, #327680
 2483 0028 24309DE5 		ldr	r3, [sp, #36]
 2484              	.LVL209:
  30:Include/sys.h ****                    Cap_Cpt,
 2485              		.loc 2 30 12 view .LVU670
 2486 002c 1908A0E3 		mov	r0, #1638400
 2487              	.LBE544:
 2488              	.LBE547:
  66:Source/rme_benchmark.c **** 	ret_t Retval;
 2489              		.loc 1 66 1 view .LVU671
 2490 0030 20909DE5 		ldr	r9, [sp, #32]
 2491              	.LBB548:
 2492              	.LBB549:
 143:Include/sys.h ****                    Cap_Thd,
ARM GAS  C:\Users\even\AppData\Local\Temp\ccu0RqlP.s 			page 81


 2493              		.loc 2 143 12 view .LVU672
 2494 0034 7550FFE6 		uxth	r5, r5
 2495              	.LVL210:
 143:Include/sys.h ****                    Cap_Thd,
 2496              		.loc 2 143 12 view .LVU673
 2497              	.LBE549:
 2498              	.LBE548:
 2499              	.LBB551:
 2500              	.LBB545:
  30:Include/sys.h ****                    Cap_Cpt,
 2501              		.loc 2 30 12 view .LVU674
 2502 0038 FEFFFFEB 		bl	RME_Svc
 2503              	.LVL211:
  34:Include/sys.h **** }
 2504              		.loc 2 34 26 is_stmt 1 view .LVU675
  34:Include/sys.h **** }
 2505              		.loc 2 34 26 is_stmt 0 view .LVU676
 2506              	.LBE545:
 2507              	.LBE551:
  83:Source/rme_benchmark.c **** 							  Tid,Prio,RME_BOOT_HYPER_KOM_VADDR);
 2508              		.loc 1 83 2 is_stmt 1 view .LVU677
 2509              	.LBB552:
 2510              	.LBI548:
 136:Include/sys.h ****                          cid_t Cap_Thd_Sched,
 2511              		.loc 2 136 7 view .LVU678
 2512              	.LBB550:
 143:Include/sys.h ****                    Cap_Thd,
 2513              		.loc 2 143 5 view .LVU679
 143:Include/sys.h ****                    Cap_Thd,
 2514              		.loc 2 143 12 is_stmt 0 view .LVU680
 2515 003c 7710FFE6 		uxth	r1, r7
 2516 0040 062885E1 		orr	r2, r5, r6, lsl #16
 2517 0044 031881E3 		orr	r1, r1, #196608
 2518 0048 0030A0E3 		mov	r3, #0
 2519 004c 1B0884E3 		orr	r0, r4, #1769472
 2520 0050 FEFFFFEB 		bl	RME_Svc
 2521              	.LVL212:
 147:Include/sys.h **** }
 2522              		.loc 2 147 26 is_stmt 1 view .LVU681
 147:Include/sys.h **** }
 2523              		.loc 2 147 26 is_stmt 0 view .LVU682
 2524              	.LBE550:
 2525              	.LBE552:
  89:Source/rme_benchmark.c **** 	//RME_Stack[2000]=1234;
 2526              		.loc 1 89 2 is_stmt 1 view .LVU683
 2527              	.LBB553:
 2528              	.LBI553:
  49:Include/sys.h ****                            ptr_t Entry,
 2529              		.loc 2 49 7 view .LVU684
 2530              	.LBB554:
  54:Include/sys.h ****                    Cap_Thd,
 2531              		.loc 2 54 5 view .LVU685
  54:Include/sys.h ****                    Cap_Thd,
 2532              		.loc 2 54 12 is_stmt 0 view .LVU686
 2533 0054 0630A0E1 		mov	r3, r6
 2534 0058 0A20A0E1 		mov	r2, r10
 2535 005c 0910A0E1 		mov	r1, r9
ARM GAS  C:\Users\even\AppData\Local\Temp\ccu0RqlP.s 			page 82


 2536 0060 060884E3 		orr	r0, r4, #393216
 2537 0064 FEFFFFEB 		bl	RME_Svc
 2538              	.LVL213:
  58:Include/sys.h **** }
 2539              		.loc 2 58 33 is_stmt 1 view .LVU687
  58:Include/sys.h **** }
 2540              		.loc 2 58 33 is_stmt 0 view .LVU688
 2541              	.LBE554:
 2542              	.LBE553:
  95:Source/rme_benchmark.c **** 	/*USR_DBG_S("\r\nDelegate some timeslice to it retval= ");
 2543              		.loc 1 95 2 is_stmt 1 view .LVU689
 2544              	.LBB555:
 2545              	.LBI555:
  88:Include/sys.h ****                         cid_t Cap_Thd_Src,
 2546              		.loc 2 88 7 view .LVU690
 2547              	.LBB556:
  92:Include/sys.h ****                    0U,
 2548              		.loc 2 92 5 view .LVU691
  92:Include/sys.h ****                    0U,
 2549              		.loc 2 92 12 is_stmt 0 view .LVU692
 2550 0068 0830A0E1 		mov	r3, r8
 2551 006c 0410A0E1 		mov	r1, r4
 2552 0070 0320A0E3 		mov	r2, #3
 2553              	.LBE556:
 2554              	.LBE555:
  98:Source/rme_benchmark.c **** 
 2555              		.loc 1 98 1 view .LVU693
 2556 0074 F047BDE8 		pop	{r4, r5, r6, r7, r8, r9, r10, lr}
 2557              		.cfi_restore 14
 2558              		.cfi_restore 10
 2559              		.cfi_restore 9
 2560              		.cfi_restore 8
 2561              		.cfi_restore 7
 2562              		.cfi_restore 6
 2563              		.cfi_restore 5
 2564              		.cfi_restore 4
 2565              		.cfi_def_cfa_offset 0
 2566              	.LVL214:
 2567              	.LBB558:
 2568              	.LBB557:
  92:Include/sys.h ****                    0U,
 2569              		.loc 2 92 12 view .LVU694
 2570 0078 0207A0E3 		mov	r0, #524288
 2571 007c FEFFFFEA 		b	RME_Svc
 2572              	.LVL215:
  92:Include/sys.h ****                    0U,
 2573              		.loc 2 92 12 view .LVU695
 2574              	.LBE557:
 2575              	.LBE558:
 2576              		.cfi_endproc
 2577              	.LFE25:
 2579              		.section	.rodata.RME_Same_Prc_Thd_Sig_Test_Thd_main_nouse.str1.4,"aMS",%progbits,1
 2580              		.align	2
 2581              	.LC9:
 2582 0000 0D0A00   		.ascii	"\015\012\000"
 2583 0003 00       		.align	2
 2584              	.LC10:
ARM GAS  C:\Users\even\AppData\Local\Temp\ccu0RqlP.s 			page 83


 2585 0004 0D0A2F2A 		.ascii	"\015\012/****************\000"
 2585      2A2A2A2A 
 2585      2A2A2A2A 
 2585      2A2A2A2A 
 2585      2A2A2A00 
 2586              		.align	2
 2587              	.LC11:
 2588 0018 62656769 		.ascii	"begin RME_Same_Prc_Thd_Sig_Test_Thd_main\000"
 2588      6E20524D 
 2588      455F5361 
 2588      6D655F50 
 2588      72635F54 
 2589 0041 000000   		.align	2
 2590              	.LC12:
 2591 0044 2A2A2A2A 		.ascii	"****************/\000"
 2591      2A2A2A2A 
 2591      2A2A2A2A 
 2591      2A2A2A2A 
 2591      2F00
 2592 0056 0000     		.align	2
 2593              	.LC13:
 2594 0058 0D0A4865 		.ascii	"\015\012Hello this is thread main\000"
 2594      6C6C6F20 
 2594      74686973 
 2594      20697320 
 2594      74687265 
 2595              		.section	.text.RME_Same_Prc_Thd_Sig_Test_Thd_main_nouse,"ax",%progbits
 2596              		.align	2
 2597              		.global	RME_Same_Prc_Thd_Sig_Test_Thd_main_nouse
 2598              		.syntax unified
 2599              		.arm
 2601              	RME_Same_Prc_Thd_Sig_Test_Thd_main_nouse:
 2602              	.LVL216:
 2603              	.LFB30:
 170:Source/rme_benchmark.c **** 	USR_DBG_S("\r\n");
 2604              		.loc 1 170 1 is_stmt 1 view -0
 2605              		.cfi_startproc
 2606              		@ Volatile: function does not return.
 2607              		@ args = 0, pretend = 0, frame = 0
 2608              		@ frame_needed = 0, uses_anonymous_args = 0
 171:Source/rme_benchmark.c **** 	USR_DBG_S("\r\n/****************");
 2609              		.loc 1 171 2 view .LVU697
 2610              	.LBB559:
 2611              	.LBI559:
 368:Include/benchmark.h **** {
 2612              		.loc 3 368 7 view .LVU698
 2613              	.LBB560:
 370:Include/benchmark.h **** 
 2614              		.loc 3 370 5 view .LVU699
 372:Include/benchmark.h ****     {
 2615              		.loc 3 372 5 view .LVU700
 372:Include/benchmark.h ****     {
 2616              		.loc 3 372 23 discriminator 1 view .LVU701
 2617 0000 001000E3 		movw	r1, #:lower16:.LC9
 2618              	.LBB561:
 2619              	.LBB562:
 222:Include/benchmark.h ****     return 0;
ARM GAS  C:\Users\even\AppData\Local\Temp\ccu0RqlP.s 			page 84


 2620              		.loc 3 222 5 is_stmt 0 discriminator 1 view .LVU702
 2621 0004 012AA0E3 		mov	r2, #4096
 2622 0008 001040E3 		movt	r1, #:upper16:.LC9
 2623 000c 00204EE3 		movt	r2, 57344
 2624 0010 FFC081E2 		add	ip, r1, #255
 2625              	.LBE562:
 2626              	.LBE561:
 2627              	.LBE560:
 2628              	.LBE559:
 170:Source/rme_benchmark.c **** 	USR_DBG_S("\r\n");
 2629              		.loc 1 170 1 view .LVU703
 2630 0014 10402DE9 		push	{r4, lr}
 2631              		.cfi_def_cfa_offset 8
 2632              		.cfi_offset 4, -8
 2633              		.cfi_offset 14, -4
 2634              	.LVL217:
 2635              	.L214:
 2636              	.LBB568:
 2637              	.LBB567:
 374:Include/benchmark.h ****         {
 2638              		.loc 3 374 9 is_stmt 1 view .LVU704
 374:Include/benchmark.h ****         {
 2639              		.loc 3 374 18 is_stmt 0 view .LVU705
 2640 0018 D100D1E0 		ldrsb	r0, [r1], #1
 2641              	.LVL218:
 374:Include/benchmark.h ****         {
 2642              		.loc 3 374 11 view .LVU706
 2643 001c 000050E3 		cmp	r0, #0
 2644 0020 0500000A 		beq	.L215
 2645              	.L212:
 2646              	.LBB565:
 2647              	.LBB563:
 222:Include/benchmark.h ****     return 0;
 2648              		.loc 3 222 5 is_stmt 1 discriminator 1 view .LVU707
 2649 0024 2C3092E5 		ldr	r3, [r2, #44]
 2650 0028 080013E3 		tst	r3, #8
 2651 002c FCFFFF0A 		beq	.L212
 222:Include/benchmark.h ****     return 0;
 2652              		.loc 3 222 5 discriminator 2 view .LVU708
 2653              	.LBE563:
 2654              	.LBE565:
 372:Include/benchmark.h ****     {
 2655              		.loc 3 372 23 is_stmt 0 discriminator 1 view .LVU709
 2656 0030 0C0051E1 		cmp	r1, ip
 2657              	.LBB566:
 2658              	.LBB564:
 222:Include/benchmark.h ****     return 0;
 2659              		.loc 3 222 5 discriminator 2 view .LVU710
 2660 0034 300082E5 		str	r0, [r2, #48]
 222:Include/benchmark.h ****     return 0;
 2661              		.loc 3 222 5 is_stmt 1 view .LVU711
 223:Include/benchmark.h **** }
 2662              		.loc 3 223 5 view .LVU712
 2663              	.LBE564:
 2664              	.LBE566:
 372:Include/benchmark.h ****     {
 2665              		.loc 3 372 33 discriminator 2 view .LVU713
ARM GAS  C:\Users\even\AppData\Local\Temp\ccu0RqlP.s 			page 85


 2666              	.LVL219:
 372:Include/benchmark.h ****     {
 2667              		.loc 3 372 23 discriminator 1 view .LVU714
 2668 0038 F6FFFF1A 		bne	.L214
 2669              	.LVL220:
 2670              	.L215:
 372:Include/benchmark.h ****     {
 2671              		.loc 3 372 23 is_stmt 0 discriminator 1 view .LVU715
 2672              	.LBE567:
 2673              	.LBE568:
 2674              	.LBB569:
 2675              	.LBB570:
 372:Include/benchmark.h ****     {
 2676              		.loc 3 372 23 is_stmt 1 discriminator 1 view .LVU716
 2677 003c 001000E3 		movw	r1, #:lower16:.LC10
 2678              	.LBB571:
 2679              	.LBB572:
 222:Include/benchmark.h ****     return 0;
 2680              		.loc 3 222 5 is_stmt 0 discriminator 1 view .LVU717
 2681 0040 012AA0E3 		mov	r2, #4096
 2682 0044 001040E3 		movt	r1, #:upper16:.LC10
 2683 0048 00204EE3 		movt	r2, 57344
 2684 004c FFC081E2 		add	ip, r1, #255
 2685              	.LVL221:
 2686              	.L213:
 222:Include/benchmark.h ****     return 0;
 2687              		.loc 3 222 5 discriminator 1 view .LVU718
 2688              	.LBE572:
 2689              	.LBE571:
 374:Include/benchmark.h ****         {
 2690              		.loc 3 374 9 is_stmt 1 view .LVU719
 374:Include/benchmark.h ****         {
 2691              		.loc 3 374 18 is_stmt 0 view .LVU720
 2692 0050 D100D1E0 		ldrsb	r0, [r1], #1
 2693              	.LVL222:
 374:Include/benchmark.h ****         {
 2694              		.loc 3 374 11 view .LVU721
 2695 0054 000050E3 		cmp	r0, #0
 2696 0058 0500000A 		beq	.L218
 2697              	.L216:
 2698              	.LBB575:
 2699              	.LBB573:
 222:Include/benchmark.h ****     return 0;
 2700              		.loc 3 222 5 is_stmt 1 discriminator 1 view .LVU722
 2701 005c 2C3092E5 		ldr	r3, [r2, #44]
 2702 0060 080013E3 		tst	r3, #8
 2703 0064 FCFFFF0A 		beq	.L216
 222:Include/benchmark.h ****     return 0;
 2704              		.loc 3 222 5 discriminator 2 view .LVU723
 2705              	.LBE573:
 2706              	.LBE575:
 372:Include/benchmark.h ****     {
 2707              		.loc 3 372 23 is_stmt 0 discriminator 1 view .LVU724
 2708 0068 0C0051E1 		cmp	r1, ip
 2709              	.LBB576:
 2710              	.LBB574:
 222:Include/benchmark.h ****     return 0;
ARM GAS  C:\Users\even\AppData\Local\Temp\ccu0RqlP.s 			page 86


 2711              		.loc 3 222 5 discriminator 2 view .LVU725
 2712 006c 300082E5 		str	r0, [r2, #48]
 222:Include/benchmark.h ****     return 0;
 2713              		.loc 3 222 5 is_stmt 1 view .LVU726
 223:Include/benchmark.h **** }
 2714              		.loc 3 223 5 view .LVU727
 2715              	.LBE574:
 2716              	.LBE576:
 372:Include/benchmark.h ****     {
 2717              		.loc 3 372 33 discriminator 2 view .LVU728
 2718              	.LVL223:
 372:Include/benchmark.h ****     {
 2719              		.loc 3 372 23 discriminator 1 view .LVU729
 2720 0070 F6FFFF1A 		bne	.L213
 2721              	.LVL224:
 2722              	.L218:
 372:Include/benchmark.h ****     {
 2723              		.loc 3 372 23 is_stmt 0 discriminator 1 view .LVU730
 2724              	.LBE570:
 2725              	.LBE569:
 2726              	.LBB577:
 2727              	.LBB578:
 372:Include/benchmark.h ****     {
 2728              		.loc 3 372 23 is_stmt 1 discriminator 1 view .LVU731
 2729 0074 001000E3 		movw	r1, #:lower16:.LC11
 2730              	.LBB579:
 2731              	.LBB580:
 222:Include/benchmark.h ****     return 0;
 2732              		.loc 3 222 5 is_stmt 0 discriminator 1 view .LVU732
 2733 0078 012AA0E3 		mov	r2, #4096
 2734 007c 001040E3 		movt	r1, #:upper16:.LC11
 2735 0080 00204EE3 		movt	r2, 57344
 2736 0084 FFC081E2 		add	ip, r1, #255
 2737              	.LVL225:
 2738              	.L217:
 222:Include/benchmark.h ****     return 0;
 2739              		.loc 3 222 5 discriminator 1 view .LVU733
 2740              	.LBE580:
 2741              	.LBE579:
 374:Include/benchmark.h ****         {
 2742              		.loc 3 374 9 is_stmt 1 view .LVU734
 374:Include/benchmark.h ****         {
 2743              		.loc 3 374 18 is_stmt 0 view .LVU735
 2744 0088 D100D1E0 		ldrsb	r0, [r1], #1
 2745              	.LVL226:
 374:Include/benchmark.h ****         {
 2746              		.loc 3 374 11 view .LVU736
 2747 008c 000050E3 		cmp	r0, #0
 2748 0090 0500000A 		beq	.L221
 2749              	.L219:
 2750              	.LBB583:
 2751              	.LBB581:
 222:Include/benchmark.h ****     return 0;
 2752              		.loc 3 222 5 is_stmt 1 discriminator 1 view .LVU737
 2753 0094 2C3092E5 		ldr	r3, [r2, #44]
 2754 0098 080013E3 		tst	r3, #8
 2755 009c FCFFFF0A 		beq	.L219
ARM GAS  C:\Users\even\AppData\Local\Temp\ccu0RqlP.s 			page 87


 222:Include/benchmark.h ****     return 0;
 2756              		.loc 3 222 5 discriminator 2 view .LVU738
 2757              	.LBE581:
 2758              	.LBE583:
 372:Include/benchmark.h ****     {
 2759              		.loc 3 372 23 is_stmt 0 discriminator 1 view .LVU739
 2760 00a0 0C0051E1 		cmp	r1, ip
 2761              	.LBB584:
 2762              	.LBB582:
 222:Include/benchmark.h ****     return 0;
 2763              		.loc 3 222 5 discriminator 2 view .LVU740
 2764 00a4 300082E5 		str	r0, [r2, #48]
 222:Include/benchmark.h ****     return 0;
 2765              		.loc 3 222 5 is_stmt 1 view .LVU741
 223:Include/benchmark.h **** }
 2766              		.loc 3 223 5 view .LVU742
 2767              	.LBE582:
 2768              	.LBE584:
 372:Include/benchmark.h ****     {
 2769              		.loc 3 372 33 discriminator 2 view .LVU743
 2770              	.LVL227:
 372:Include/benchmark.h ****     {
 2771              		.loc 3 372 23 discriminator 1 view .LVU744
 2772 00a8 F6FFFF1A 		bne	.L217
 2773              	.LVL228:
 2774              	.L221:
 372:Include/benchmark.h ****     {
 2775              		.loc 3 372 23 is_stmt 0 discriminator 1 view .LVU745
 2776              	.LBE578:
 2777              	.LBE577:
 2778              	.LBB585:
 2779              	.LBB586:
 372:Include/benchmark.h ****     {
 2780              		.loc 3 372 23 is_stmt 1 discriminator 1 view .LVU746
 2781 00ac 001000E3 		movw	r1, #:lower16:.LC12
 2782              	.LBB587:
 2783              	.LBB588:
 222:Include/benchmark.h ****     return 0;
 2784              		.loc 3 222 5 is_stmt 0 discriminator 1 view .LVU747
 2785 00b0 012AA0E3 		mov	r2, #4096
 2786 00b4 001040E3 		movt	r1, #:upper16:.LC12
 2787 00b8 00204EE3 		movt	r2, 57344
 2788 00bc FFC081E2 		add	ip, r1, #255
 2789              	.LVL229:
 2790              	.L220:
 222:Include/benchmark.h ****     return 0;
 2791              		.loc 3 222 5 discriminator 1 view .LVU748
 2792              	.LBE588:
 2793              	.LBE587:
 374:Include/benchmark.h ****         {
 2794              		.loc 3 374 9 is_stmt 1 view .LVU749
 374:Include/benchmark.h ****         {
 2795              		.loc 3 374 18 is_stmt 0 view .LVU750
 2796 00c0 D100D1E0 		ldrsb	r0, [r1], #1
 2797              	.LVL230:
 374:Include/benchmark.h ****         {
 2798              		.loc 3 374 11 view .LVU751
ARM GAS  C:\Users\even\AppData\Local\Temp\ccu0RqlP.s 			page 88


 2799 00c4 000050E3 		cmp	r0, #0
 2800 00c8 0500000A 		beq	.L224
 2801              	.L222:
 2802              	.LBB591:
 2803              	.LBB589:
 222:Include/benchmark.h ****     return 0;
 2804              		.loc 3 222 5 is_stmt 1 discriminator 1 view .LVU752
 2805 00cc 2C3092E5 		ldr	r3, [r2, #44]
 2806 00d0 080013E3 		tst	r3, #8
 2807 00d4 FCFFFF0A 		beq	.L222
 222:Include/benchmark.h ****     return 0;
 2808              		.loc 3 222 5 discriminator 2 view .LVU753
 2809              	.LBE589:
 2810              	.LBE591:
 372:Include/benchmark.h ****     {
 2811              		.loc 3 372 23 is_stmt 0 discriminator 1 view .LVU754
 2812 00d8 0C0051E1 		cmp	r1, ip
 2813              	.LBB592:
 2814              	.LBB590:
 222:Include/benchmark.h ****     return 0;
 2815              		.loc 3 222 5 discriminator 2 view .LVU755
 2816 00dc 300082E5 		str	r0, [r2, #48]
 222:Include/benchmark.h ****     return 0;
 2817              		.loc 3 222 5 is_stmt 1 view .LVU756
 223:Include/benchmark.h **** }
 2818              		.loc 3 223 5 view .LVU757
 2819              	.LBE590:
 2820              	.LBE592:
 372:Include/benchmark.h ****     {
 2821              		.loc 3 372 33 discriminator 2 view .LVU758
 2822              	.LVL231:
 372:Include/benchmark.h ****     {
 2823              		.loc 3 372 23 discriminator 1 view .LVU759
 2824 00e0 F6FFFF1A 		bne	.L220
 2825              	.LVL232:
 2826              	.L224:
 372:Include/benchmark.h ****     {
 2827              		.loc 3 372 23 is_stmt 0 discriminator 1 view .LVU760
 2828              	.LBE586:
 2829              	.LBE585:
 2830              	.LBB593:
 2831              	.LBB594:
 372:Include/benchmark.h ****     {
 2832              		.loc 3 372 23 is_stmt 1 discriminator 1 view .LVU761
 2833 00e4 001000E3 		movw	r1, #:lower16:.LC13
 2834              	.LBB595:
 2835              	.LBB596:
 222:Include/benchmark.h ****     return 0;
 2836              		.loc 3 222 5 is_stmt 0 discriminator 1 view .LVU762
 2837 00e8 012AA0E3 		mov	r2, #4096
 2838 00ec 001040E3 		movt	r1, #:upper16:.LC13
 2839 00f0 00204EE3 		movt	r2, 57344
 2840 00f4 FFC081E2 		add	ip, r1, #255
 2841              	.LVL233:
 2842              	.L223:
 222:Include/benchmark.h ****     return 0;
 2843              		.loc 3 222 5 discriminator 1 view .LVU763
ARM GAS  C:\Users\even\AppData\Local\Temp\ccu0RqlP.s 			page 89


 2844              	.LBE596:
 2845              	.LBE595:
 374:Include/benchmark.h ****         {
 2846              		.loc 3 374 9 is_stmt 1 view .LVU764
 374:Include/benchmark.h ****         {
 2847              		.loc 3 374 18 is_stmt 0 view .LVU765
 2848 00f8 D100D1E0 		ldrsb	r0, [r1], #1
 2849              	.LVL234:
 374:Include/benchmark.h ****         {
 2850              		.loc 3 374 11 view .LVU766
 2851 00fc 000050E3 		cmp	r0, #0
 2852 0100 0500000A 		beq	.L227
 2853              	.L225:
 2854              	.LBB599:
 2855              	.LBB597:
 222:Include/benchmark.h ****     return 0;
 2856              		.loc 3 222 5 is_stmt 1 discriminator 1 view .LVU767
 2857 0104 2C3092E5 		ldr	r3, [r2, #44]
 2858 0108 080013E3 		tst	r3, #8
 2859 010c FCFFFF0A 		beq	.L225
 222:Include/benchmark.h ****     return 0;
 2860              		.loc 3 222 5 discriminator 2 view .LVU768
 2861              	.LBE597:
 2862              	.LBE599:
 372:Include/benchmark.h ****     {
 2863              		.loc 3 372 23 is_stmt 0 discriminator 1 view .LVU769
 2864 0110 01005CE1 		cmp	ip, r1
 2865              	.LBB600:
 2866              	.LBB598:
 222:Include/benchmark.h ****     return 0;
 2867              		.loc 3 222 5 discriminator 2 view .LVU770
 2868 0114 300082E5 		str	r0, [r2, #48]
 222:Include/benchmark.h ****     return 0;
 2869              		.loc 3 222 5 is_stmt 1 view .LVU771
 223:Include/benchmark.h **** }
 2870              		.loc 3 223 5 view .LVU772
 2871              	.LBE598:
 2872              	.LBE600:
 372:Include/benchmark.h ****     {
 2873              		.loc 3 372 33 discriminator 2 view .LVU773
 2874              	.LVL235:
 372:Include/benchmark.h ****     {
 2875              		.loc 3 372 23 discriminator 1 view .LVU774
 2876 0118 F6FFFF1A 		bne	.L223
 2877              	.LVL236:
 2878              	.L227:
 387:Include/benchmark.h **** }
 2879              		.loc 3 387 5 view .LVU775
 2880              	.LBE594:
 2881              	.LBE593:
 176:Source/rme_benchmark.c **** 
 2882              		.loc 1 176 2 view .LVU776
 180:Source/rme_benchmark.c **** 	RME_Thd_Swt(RME_BOOT_BENCH_SEN_THD,0);
 2883              		.loc 1 180 2 view .LVU777
 2884              	.LBB601:
 2885              	.LBI601:
 227:Include/sys.h **** {
ARM GAS  C:\Users\even\AppData\Local\Temp\ccu0RqlP.s 			page 90


 2886              		.loc 2 227 7 view .LVU778
 2887              	.LBB602:
 229:Include/sys.h ****                    0U,
 2888              		.loc 2 229 5 view .LVU779
 229:Include/sys.h ****                    0U,
 2889              		.loc 2 229 12 is_stmt 0 view .LVU780
 2890 011c 0030A0E3 		mov	r3, #0
 2891 0120 0120A0E3 		mov	r2, #1
 2892 0124 0D10A0E3 		mov	r1, #13
 2893 0128 0208A0E3 		mov	r0, #131072
 2894 012c FEFFFFEB 		bl	RME_Svc
 2895              	.LVL237:
 233:Include/sys.h **** }
 2896              		.loc 2 233 23 is_stmt 1 view .LVU781
 233:Include/sys.h **** }
 2897              		.loc 2 233 23 is_stmt 0 view .LVU782
 2898              	.LBE602:
 2899              	.LBE601:
 181:Source/rme_benchmark.c **** 
 2900              		.loc 1 181 2 is_stmt 1 view .LVU783
 2901              	.LBB603:
 2902              	.LBI603:
 167:Include/sys.h ****                   ptr_t Is_Yield)
 2903              		.loc 2 167 7 view .LVU784
 2904              	.LBB604:
 170:Include/sys.h ****                    0U,
 2905              		.loc 2 170 5 view .LVU785
 170:Include/sys.h ****                    0U,
 2906              		.loc 2 170 12 is_stmt 0 view .LVU786
 2907 0130 0030A0E3 		mov	r3, #0
 2908 0134 0E10A0E3 		mov	r1, #14
 2909 0138 0320A0E1 		mov	r2, r3
 2910 013c 0908A0E3 		mov	r0, #589824
 2911 0140 FEFFFFEB 		bl	RME_Svc
 2912              	.LVL238:
 174:Include/sys.h **** }
 2913              		.loc 2 174 23 is_stmt 1 view .LVU787
 2914              	.L226:
 174:Include/sys.h **** }
 2915              		.loc 2 174 23 is_stmt 0 view .LVU788
 2916              	.LBE604:
 2917              	.LBE603:
 183:Source/rme_benchmark.c **** }
 2918              		.loc 1 183 2 is_stmt 1 view .LVU789
 183:Source/rme_benchmark.c **** }
 2919              		.loc 1 183 7 view .LVU790
 183:Source/rme_benchmark.c **** }
 2920              		.loc 1 183 2 view .LVU791
 183:Source/rme_benchmark.c **** }
 2921              		.loc 1 183 7 view .LVU792
 2922 0144 FEFFFFEA 		b	.L226
 2923              		.cfi_endproc
 2924              	.LFE30:
 2926              		.section	.rodata.RME_Same_Prc_Thd_Sig_Testinit.str1.4,"aMS",%progbits,1
 2927              		.align	2
 2928              	.LC14:
 2929 0000 0D0A6372 		.ascii	"\015\012create a signal end point      retval= \000"
ARM GAS  C:\Users\even\AppData\Local\Temp\ccu0RqlP.s 			page 91


 2929      65617465 
 2929      20612073 
 2929      69676E61 
 2929      6C20656E 
 2930              		.section	.text.RME_Same_Prc_Thd_Sig_Testinit,"ax",%progbits
 2931              		.align	2
 2932              		.global	RME_Same_Prc_Thd_Sig_Testinit
 2933              		.syntax unified
 2934              		.arm
 2936              	RME_Same_Prc_Thd_Sig_Testinit:
 2937              	.LFB31:
 192:Source/rme_benchmark.c **** 	ret_t Retval;
 2938              		.loc 1 192 1 view -0
 2939              		.cfi_startproc
 2940              		@ args = 0, pretend = 0, frame = 0
 2941              		@ frame_needed = 0, uses_anonymous_args = 0
 193:Source/rme_benchmark.c **** 
 2942              		.loc 1 193 2 view .LVU794
 196:Source/rme_benchmark.c **** 	USR_DBG_S("\r\ncreate a signal end point      retval= ");
 2943              		.loc 1 196 2 view .LVU795
 2944              	.LVL239:
 2945              	.LBB631:
 2946              	.LBI631:
 189:Include/sys.h ****                   cid_t Cap_Sig)
 2947              		.loc 2 189 7 view .LVU796
 2948              	.LBB632:
 192:Include/sys.h ****                    Cap_Cpt,
 2949              		.loc 2 192 5 view .LVU797
 192:Include/sys.h ****                    Cap_Cpt,
 2950              		.loc 2 192 12 is_stmt 0 view .LVU798
 2951 0000 0030A0E3 		mov	r3, #0
 2952 0004 0D10A0E3 		mov	r1, #13
 2953 0008 0320A0E1 		mov	r2, r3
 2954              	.LBE632:
 2955              	.LBE631:
 192:Source/rme_benchmark.c **** 	ret_t Retval;
 2956              		.loc 1 192 1 view .LVU799
 2957 000c 10402DE9 		push	{r4, lr}
 2958              		.cfi_def_cfa_offset 8
 2959              		.cfi_offset 4, -8
 2960              		.cfi_offset 14, -4
 2961              	.LBB635:
 2962              	.LBB633:
 192:Include/sys.h ****                    Cap_Cpt,
 2963              		.loc 2 192 12 view .LVU800
 2964 0010 1D08A0E3 		mov	r0, #1900544
 2965 0014 FEFFFFEB 		bl	RME_Svc
 2966              	.LVL240:
 2967 0018 001000E3 		movw	r1, #:lower16:.LC14
 2968              	.LBE633:
 2969              	.LBE635:
 2970              	.LBB636:
 2971              	.LBB637:
 2972              	.LBB638:
 2973              	.LBB639:
 222:Include/benchmark.h ****     return 0;
 2974              		.loc 3 222 5 discriminator 1 view .LVU801
ARM GAS  C:\Users\even\AppData\Local\Temp\ccu0RqlP.s 			page 92


 2975 001c 012AA0E3 		mov	r2, #4096
 2976 0020 001040E3 		movt	r1, #:upper16:.LC14
 2977              	.LBE639:
 2978              	.LBE638:
 2979              	.LBE637:
 2980              	.LBE636:
 2981              	.LBB647:
 2982              	.LBB634:
 196:Include/sys.h **** }
 2983              		.loc 2 196 23 is_stmt 1 view .LVU802
 2984              	.LVL241:
 196:Include/sys.h **** }
 2985              		.loc 2 196 23 is_stmt 0 view .LVU803
 2986              	.LBE634:
 2987              	.LBE647:
 197:Source/rme_benchmark.c **** 	USR_DBG_I(Retval);
 2988              		.loc 1 197 2 is_stmt 1 view .LVU804
 2989              	.LBB648:
 2990              	.LBI636:
 368:Include/benchmark.h **** {
 2991              		.loc 3 368 7 view .LVU805
 2992              	.LBB646:
 370:Include/benchmark.h **** 
 2993              		.loc 3 370 5 view .LVU806
 372:Include/benchmark.h ****     {
 2994              		.loc 3 372 5 view .LVU807
 372:Include/benchmark.h ****     {
 2995              		.loc 3 372 23 discriminator 1 view .LVU808
 2996              	.LBB643:
 2997              	.LBB640:
 222:Include/benchmark.h ****     return 0;
 2998              		.loc 3 222 5 is_stmt 0 discriminator 1 view .LVU809
 2999 0024 00204EE3 		movt	r2, 57344
 3000 0028 FFE081E2 		add	lr, r1, #255
 3001              	.LVL242:
 3002              	.L252:
 222:Include/benchmark.h ****     return 0;
 3003              		.loc 3 222 5 discriminator 1 view .LVU810
 3004              	.LBE640:
 3005              	.LBE643:
 374:Include/benchmark.h ****         {
 3006              		.loc 3 374 9 is_stmt 1 view .LVU811
 374:Include/benchmark.h ****         {
 3007              		.loc 3 374 18 is_stmt 0 view .LVU812
 3008 002c D1C0D1E0 		ldrsb	ip, [r1], #1
 3009              	.LVL243:
 374:Include/benchmark.h ****         {
 3010              		.loc 3 374 11 view .LVU813
 3011 0030 00005CE3 		cmp	ip, #0
 3012 0034 0500000A 		beq	.L250
 3013              	.L251:
 3014              	.LBB644:
 3015              	.LBB641:
 222:Include/benchmark.h ****     return 0;
 3016              		.loc 3 222 5 is_stmt 1 discriminator 1 view .LVU814
 3017 0038 2C3092E5 		ldr	r3, [r2, #44]
 3018 003c 080013E3 		tst	r3, #8
ARM GAS  C:\Users\even\AppData\Local\Temp\ccu0RqlP.s 			page 93


 3019 0040 FCFFFF0A 		beq	.L251
 222:Include/benchmark.h ****     return 0;
 3020              		.loc 3 222 5 discriminator 2 view .LVU815
 3021              	.LBE641:
 3022              	.LBE644:
 372:Include/benchmark.h ****     {
 3023              		.loc 3 372 23 is_stmt 0 discriminator 1 view .LVU816
 3024 0044 01005EE1 		cmp	lr, r1
 3025              	.LBB645:
 3026              	.LBB642:
 222:Include/benchmark.h ****     return 0;
 3027              		.loc 3 222 5 discriminator 2 view .LVU817
 3028 0048 30C082E5 		str	ip, [r2, #48]
 222:Include/benchmark.h ****     return 0;
 3029              		.loc 3 222 5 is_stmt 1 view .LVU818
 223:Include/benchmark.h **** }
 3030              		.loc 3 223 5 view .LVU819
 3031              	.LBE642:
 3032              	.LBE645:
 372:Include/benchmark.h ****     {
 3033              		.loc 3 372 33 discriminator 2 view .LVU820
 3034              	.LVL244:
 372:Include/benchmark.h ****     {
 3035              		.loc 3 372 23 discriminator 1 view .LVU821
 3036 004c F6FFFF1A 		bne	.L252
 3037              	.LVL245:
 3038              	.L250:
 387:Include/benchmark.h **** }
 3039              		.loc 3 387 5 view .LVU822
 387:Include/benchmark.h **** }
 3040              		.loc 3 387 5 is_stmt 0 view .LVU823
 3041              	.LBE646:
 3042              	.LBE648:
 198:Source/rme_benchmark.c **** 	/* create signal test thread */
 3043              		.loc 1 198 2 is_stmt 1 view .LVU824
 201:Source/rme_benchmark.c ****                    Cur_addr,RME_BOOT_SIG_BENCH,RME_THD_INF_TIME,(ptr_t)&RME_Stack3[2000]);
 3044              		.loc 1 201 2 is_stmt 0 view .LVU825
 3045 0050 004000E3 		movw	r4, #:lower16:Cur_addr
 3046 0054 004040E3 		movt	r4, #:upper16:Cur_addr
 198:Source/rme_benchmark.c **** 	/* create signal test thread */
 3047              		.loc 1 198 2 view .LVU826
 3048 0058 FEFFFFEB 		bl	USR_DBG_I
 3049              	.LVL246:
 201:Source/rme_benchmark.c ****                    Cur_addr,RME_BOOT_SIG_BENCH,RME_THD_INF_TIME,(ptr_t)&RME_Stack3[2000]);
 3050              		.loc 1 201 2 is_stmt 1 view .LVU827
 3051              	.LBB649:
 3052              	.LBI649:
  65:Source/rme_benchmark.c **** {
 3053              		.loc 1 65 6 view .LVU828
 3054              	.LBB650:
  67:Source/rme_benchmark.c **** 	cnt_t Count;
 3055              		.loc 1 67 2 view .LVU829
  68:Source/rme_benchmark.c **** 	ptr_t Stack_Addr;
 3056              		.loc 1 68 2 view .LVU830
  69:Source/rme_benchmark.c **** 	ptr_t Temp;
 3057              		.loc 1 69 2 view .LVU831
  70:Source/rme_benchmark.c **** 	/*USR_DBG_S("\r\n-----create a thread , TID= ");
ARM GAS  C:\Users\even\AppData\Local\Temp\ccu0RqlP.s 			page 94


 3058              		.loc 1 70 2 view .LVU832
  74:Source/rme_benchmark.c **** 
 3059              		.loc 1 74 2 view .LVU833
  77:Source/rme_benchmark.c **** 					   Cap_Prc,RME_THD_PRIO_MAX,Raddr,0);
 3060              		.loc 1 77 2 view .LVU834
 3061              	.LBB651:
 3062              	.LBI651:
  22:Include/sys.h ****                       cid_t Cap_Kom,
 3063              		.loc 2 22 7 view .LVU835
 3064              	.LBB652:
  30:Include/sys.h ****                    Cap_Cpt,
 3065              		.loc 2 30 5 view .LVU836
  30:Include/sys.h ****                    Cap_Cpt,
 3066              		.loc 2 30 12 is_stmt 0 view .LVU837
 3067 005c 1F20A0E3 		mov	r2, #31
 3068 0060 0F10A0E3 		mov	r1, #15
 3069 0064 003094E5 		ldr	r3, [r4]
 3070 0068 022040E3 		movt	r2, 2
 3071 006c 051040E3 		movt	r1, 5
 3072 0070 1908A0E3 		mov	r0, #1638400
 3073 0074 FEFFFFEB 		bl	RME_Svc
 3074              	.LVL247:
  34:Include/sys.h **** }
 3075              		.loc 2 34 26 is_stmt 1 view .LVU838
  34:Include/sys.h **** }
 3076              		.loc 2 34 26 is_stmt 0 view .LVU839
 3077              	.LBE652:
 3078              	.LBE651:
  83:Source/rme_benchmark.c **** 							  Tid,Prio,RME_BOOT_HYPER_KOM_VADDR);
 3079              		.loc 1 83 2 is_stmt 1 view .LVU840
 3080              	.LBB653:
 3081              	.LBI653:
 136:Include/sys.h ****                          cid_t Cap_Thd_Sched,
 3082              		.loc 2 136 7 view .LVU841
 3083              	.LBB654:
 143:Include/sys.h ****                    Cap_Thd,
 3084              		.loc 2 143 5 view .LVU842
 143:Include/sys.h ****                    Cap_Thd,
 3085              		.loc 2 143 12 is_stmt 0 view .LVU843
 3086 0078 0520A0E3 		mov	r2, #5
 3087 007c 0D10A0E3 		mov	r1, #13
 3088 0080 0F00A0E3 		mov	r0, #15
 3089 0084 0030A0E3 		mov	r3, #0
 3090 0088 042040E3 		movt	r2, 4
 3091 008c 031040E3 		movt	r1, 3
 3092 0090 1B0040E3 		movt	r0, 27
 3093 0094 FEFFFFEB 		bl	RME_Svc
 3094              	.LVL248:
 147:Include/sys.h **** }
 3095              		.loc 2 147 26 is_stmt 1 view .LVU844
 147:Include/sys.h **** }
 3096              		.loc 2 147 26 is_stmt 0 view .LVU845
 3097              	.LBE654:
 3098              	.LBE653:
  89:Source/rme_benchmark.c **** 	//RME_Stack[2000]=1234;
 3099              		.loc 1 89 2 is_stmt 1 view .LVU846
 3100              	.LBB655:
ARM GAS  C:\Users\even\AppData\Local\Temp\ccu0RqlP.s 			page 95


 3101              	.LBI655:
  49:Include/sys.h ****                            ptr_t Entry,
 3102              		.loc 2 49 7 view .LVU847
 3103              	.LBB656:
  54:Include/sys.h ****                    Cap_Thd,
 3104              		.loc 2 54 5 view .LVU848
  54:Include/sys.h ****                    Cap_Thd,
 3105              		.loc 2 54 12 is_stmt 0 view .LVU849
 3106 0098 001000E3 		movw	r1, #:lower16:RME_Same_Prc_Thd_Sig_Test_Thd_recv
 3107 009c 0F00A0E3 		mov	r0, #15
 3108 00a0 A4209FE5 		ldr	r2, .L260
 3109              	.LVL249:
  54:Include/sys.h ****                    Cap_Thd,
 3110              		.loc 2 54 12 view .LVU850
 3111 00a4 0430A0E3 		mov	r3, #4
 3112 00a8 001040E3 		movt	r1, #:upper16:RME_Same_Prc_Thd_Sig_Test_Thd_recv
 3113 00ac 060040E3 		movt	r0, 6
 3114 00b0 FEFFFFEB 		bl	RME_Svc
 3115              	.LVL250:
  58:Include/sys.h **** }
 3116              		.loc 2 58 33 is_stmt 1 view .LVU851
  58:Include/sys.h **** }
 3117              		.loc 2 58 33 is_stmt 0 view .LVU852
 3118              	.LBE656:
 3119              	.LBE655:
  95:Source/rme_benchmark.c **** 	/*USR_DBG_S("\r\nDelegate some timeslice to it retval= ");
 3120              		.loc 1 95 2 is_stmt 1 view .LVU853
 3121              	.LBB657:
 3122              	.LBI657:
  88:Include/sys.h ****                         cid_t Cap_Thd_Src,
 3123              		.loc 2 88 7 view .LVU854
 3124              	.LBB658:
  92:Include/sys.h ****                    0U,
 3125              		.loc 2 92 5 view .LVU855
  92:Include/sys.h ****                    0U,
 3126              		.loc 2 92 12 is_stmt 0 view .LVU856
 3127 00b4 0631E0E3 		mvn	r3, #-2147483647
 3128 00b8 0320A0E3 		mov	r2, #3
 3129 00bc 0F10A0E3 		mov	r1, #15
 3130 00c0 0207A0E3 		mov	r0, #524288
 3131 00c4 FEFFFFEB 		bl	RME_Svc
 3132              	.LVL251:
  96:Include/sys.h **** }
 3133              		.loc 2 96 25 is_stmt 1 view .LVU857
  96:Include/sys.h **** }
 3134              		.loc 2 96 25 is_stmt 0 view .LVU858
 3135              	.LBE658:
 3136              	.LBE657:
 3137              	.LBE650:
 3138              	.LBE649:
 203:Source/rme_benchmark.c **** 	RME_Thd_Create(RME_BOOT_INIT_PRC,RME_BOOT_BENCH_SEN_THD,RME_TID_3,4,(ptr_t)RME_Same_Prc_Thd_Sig_Te
 3139              		.loc 1 203 2 is_stmt 1 view .LVU859
 203:Source/rme_benchmark.c **** 	RME_Thd_Create(RME_BOOT_INIT_PRC,RME_BOOT_BENCH_SEN_THD,RME_TID_3,4,(ptr_t)RME_Same_Prc_Thd_Sig_Te
 3140              		.loc 1 203 10 is_stmt 0 view .LVU860
 3141 00c8 003094E5 		ldr	r3, [r4]
 3142              	.LBB659:
 3143              	.LBB660:
ARM GAS  C:\Users\even\AppData\Local\Temp\ccu0RqlP.s 			page 96


 3144              	.LBB661:
 3145              	.LBB662:
  30:Include/sys.h ****                    Cap_Cpt,
 3146              		.loc 2 30 12 view .LVU861
 3147 00cc 1F20A0E3 		mov	r2, #31
 3148 00d0 0E10A0E3 		mov	r1, #14
 3149 00d4 022040E3 		movt	r2, 2
 3150 00d8 051040E3 		movt	r1, 5
 3151 00dc 1908A0E3 		mov	r0, #1638400
 3152              	.LBE662:
 3153              	.LBE661:
 3154              	.LBE660:
 3155              	.LBE659:
 203:Source/rme_benchmark.c **** 	RME_Thd_Create(RME_BOOT_INIT_PRC,RME_BOOT_BENCH_SEN_THD,RME_TID_3,4,(ptr_t)RME_Same_Prc_Thd_Sig_Te
 3156              		.loc 1 203 10 view .LVU862
 3157 00e0 023C83E2 		add	r3, r3, #512
 3158 00e4 003084E5 		str	r3, [r4]
 204:Source/rme_benchmark.c **** 				   Cur_addr,RME_BOOT_SIG_BENCH,RME_THD_INF_TIME,(ptr_t)&RME_Stack2[2000]);
 3159              		.loc 1 204 2 is_stmt 1 view .LVU863
 3160              	.LVL252:
 3161              	.LBB672:
 3162              	.LBI659:
  65:Source/rme_benchmark.c **** {
 3163              		.loc 1 65 6 view .LVU864
 3164              	.LBB671:
  67:Source/rme_benchmark.c **** 	cnt_t Count;
 3165              		.loc 1 67 2 view .LVU865
  68:Source/rme_benchmark.c **** 	ptr_t Stack_Addr;
 3166              		.loc 1 68 2 view .LVU866
  69:Source/rme_benchmark.c **** 	ptr_t Temp;
 3167              		.loc 1 69 2 view .LVU867
  70:Source/rme_benchmark.c **** 	/*USR_DBG_S("\r\n-----create a thread , TID= ");
 3168              		.loc 1 70 2 view .LVU868
  74:Source/rme_benchmark.c **** 
 3169              		.loc 1 74 2 view .LVU869
  77:Source/rme_benchmark.c **** 					   Cap_Prc,RME_THD_PRIO_MAX,Raddr,0);
 3170              		.loc 1 77 2 view .LVU870
 3171              	.LBB664:
 3172              	.LBI661:
  22:Include/sys.h ****                       cid_t Cap_Kom,
 3173              		.loc 2 22 7 view .LVU871
 3174              	.LBB663:
  30:Include/sys.h ****                    Cap_Cpt,
 3175              		.loc 2 30 5 view .LVU872
  30:Include/sys.h ****                    Cap_Cpt,
 3176              		.loc 2 30 12 is_stmt 0 view .LVU873
 3177 00e8 FEFFFFEB 		bl	RME_Svc
 3178              	.LVL253:
  34:Include/sys.h **** }
 3179              		.loc 2 34 26 is_stmt 1 view .LVU874
  34:Include/sys.h **** }
 3180              		.loc 2 34 26 is_stmt 0 view .LVU875
 3181              	.LBE663:
 3182              	.LBE664:
  83:Source/rme_benchmark.c **** 							  Tid,Prio,RME_BOOT_HYPER_KOM_VADDR);
 3183              		.loc 1 83 2 is_stmt 1 view .LVU876
 3184              	.LBB665:
ARM GAS  C:\Users\even\AppData\Local\Temp\ccu0RqlP.s 			page 97


 3185              	.LBI665:
 136:Include/sys.h ****                          cid_t Cap_Thd_Sched,
 3186              		.loc 2 136 7 view .LVU877
 3187              	.LBB666:
 143:Include/sys.h ****                    Cap_Thd,
 3188              		.loc 2 143 5 view .LVU878
 143:Include/sys.h ****                    Cap_Thd,
 3189              		.loc 2 143 12 is_stmt 0 view .LVU879
 3190 00ec 0420A0E3 		mov	r2, #4
 3191 00f0 0D10A0E3 		mov	r1, #13
 3192 00f4 0E00A0E3 		mov	r0, #14
 3193 00f8 0030A0E3 		mov	r3, #0
 3194 00fc 032040E3 		movt	r2, 3
 3195 0100 031040E3 		movt	r1, 3
 3196 0104 1B0040E3 		movt	r0, 27
 3197 0108 FEFFFFEB 		bl	RME_Svc
 3198              	.LVL254:
 147:Include/sys.h **** }
 3199              		.loc 2 147 26 is_stmt 1 view .LVU880
 147:Include/sys.h **** }
 3200              		.loc 2 147 26 is_stmt 0 view .LVU881
 3201              	.LBE666:
 3202              	.LBE665:
  89:Source/rme_benchmark.c **** 	//RME_Stack[2000]=1234;
 3203              		.loc 1 89 2 is_stmt 1 view .LVU882
 3204              	.LBB667:
 3205              	.LBI667:
  49:Include/sys.h ****                            ptr_t Entry,
 3206              		.loc 2 49 7 view .LVU883
 3207              	.LBB668:
  54:Include/sys.h ****                    Cap_Thd,
 3208              		.loc 2 54 5 view .LVU884
  54:Include/sys.h ****                    Cap_Thd,
 3209              		.loc 2 54 12 is_stmt 0 view .LVU885
 3210 010c 001000E3 		movw	r1, #:lower16:RME_Same_Prc_Thd_Sig_Test_Thd_send
 3211 0110 0E00A0E3 		mov	r0, #14
 3212 0114 34209FE5 		ldr	r2, .L260+4
 3213              	.LVL255:
  54:Include/sys.h ****                    Cap_Thd,
 3214              		.loc 2 54 12 view .LVU886
 3215 0118 0330A0E3 		mov	r3, #3
 3216 011c 001040E3 		movt	r1, #:upper16:RME_Same_Prc_Thd_Sig_Test_Thd_send
 3217 0120 060040E3 		movt	r0, 6
 3218 0124 FEFFFFEB 		bl	RME_Svc
 3219              	.LVL256:
  58:Include/sys.h **** }
 3220              		.loc 2 58 33 is_stmt 1 view .LVU887
  58:Include/sys.h **** }
 3221              		.loc 2 58 33 is_stmt 0 view .LVU888
 3222              	.LBE668:
 3223              	.LBE667:
  95:Source/rme_benchmark.c **** 	/*USR_DBG_S("\r\nDelegate some timeslice to it retval= ");
 3224              		.loc 1 95 2 is_stmt 1 view .LVU889
 3225              	.LBB669:
 3226              	.LBI669:
  88:Include/sys.h ****                         cid_t Cap_Thd_Src,
 3227              		.loc 2 88 7 view .LVU890
ARM GAS  C:\Users\even\AppData\Local\Temp\ccu0RqlP.s 			page 98


 3228              	.LBB670:
  92:Include/sys.h ****                    0U,
 3229              		.loc 2 92 5 view .LVU891
  92:Include/sys.h ****                    0U,
 3230              		.loc 2 92 12 is_stmt 0 view .LVU892
 3231 0128 0631E0E3 		mvn	r3, #-2147483647
 3232 012c 0320A0E3 		mov	r2, #3
 3233 0130 0E10A0E3 		mov	r1, #14
 3234 0134 0207A0E3 		mov	r0, #524288
 3235 0138 FEFFFFEB 		bl	RME_Svc
 3236              	.LVL257:
  96:Include/sys.h **** }
 3237              		.loc 2 96 25 is_stmt 1 view .LVU893
  96:Include/sys.h **** }
 3238              		.loc 2 96 25 is_stmt 0 view .LVU894
 3239              	.LBE670:
 3240              	.LBE669:
 3241              	.LBE671:
 3242              	.LBE672:
 206:Source/rme_benchmark.c **** }
 3243              		.loc 1 206 2 is_stmt 1 view .LVU895
 206:Source/rme_benchmark.c **** }
 3244              		.loc 1 206 10 is_stmt 0 view .LVU896
 3245 013c 003094E5 		ldr	r3, [r4]
 3246 0140 023C83E2 		add	r3, r3, #512
 3247 0144 003084E5 		str	r3, [r4]
 207:Source/rme_benchmark.c **** 
 3248              		.loc 1 207 1 view .LVU897
 3249 0148 1080BDE8 		pop	{r4, pc}
 3250              	.L261:
 3251              		.align	2
 3252              	.L260:
 3253 014c 401F0000 		.word	RME_Stack3+8000
 3254 0150 401F0000 		.word	RME_Stack2+8000
 3255              		.cfi_endproc
 3256              	.LFE31:
 3258              		.section	.rodata.RME_Diff_Prc_Thd_Sig_Testinit.str1.4,"aMS",%progbits,1
 3259              		.align	2
 3260              	.LC15:
 3261 0000 200D0A43 		.ascii	" \015\012Cur_addr= \000"
 3261      75725F61 
 3261      6464723D 
 3261      2000
 3262 000e 0000     		.align	2
 3263              	.LC16:
 3264 0010 0D0A6372 		.ascii	"\015\012create rcv page table  retval= \000"
 3264      65617465 
 3264      20726376 
 3264      20706167 
 3264      65207461 
 3265 0032 0000     		.align	2
 3266              	.LC17:
 3267 0034 0D0A4669 		.ascii	"\015\012First section's first entry \000"
 3267      72737420 
 3267      73656374 
 3267      696F6E27 
 3267      73206669 
ARM GAS  C:\Users\even\AppData\Local\Temp\ccu0RqlP.s 			page 99


 3268 0053 00       		.align	2
 3269              	.LC18:
 3270 0054 20402000 		.ascii	" @ \000"
 3271              		.align	2
 3272              	.LC19:
 3273 0058 0D0A4669 		.ascii	"\015\012First section's 0x080th entry \000"
 3273      72737420 
 3273      73656374 
 3273      696F6E27 
 3273      73203078 
 3274 0079 000000   		.align	2
 3275              	.LC20:
 3276 007c 0D0A5365 		.ascii	"\015\012Second section's first entry \000"
 3276      636F6E64 
 3276      20736563 
 3276      74696F6E 
 3276      27732066 
 3277              		.align	2
 3278              	.LC21:
 3279 009c 0D0A5468 		.ascii	"\015\012Third section's first entry \000"
 3279      69726420 
 3279      73656374 
 3279      696F6E27 
 3279      73206669 
 3280 00bb 00       		.align	2
 3281              	.LC22:
 3282 00bc 0D0A2063 		.ascii	"\015\012 create benchmark prc  retval= \000"
 3282      72656174 
 3282      65206265 
 3282      6E63686D 
 3282      61726B20 
 3283 00de 0000     		.align	2
 3284              	.LC23:
 3285 00e0 0D0A2063 		.ascii	"\015\012 create send thd  retval= \000"
 3285      72656174 
 3285      65207365 
 3285      6E642074 
 3285      68642020 
 3286              		.section	.text.RME_Diff_Prc_Thd_Sig_Testinit,"ax",%progbits
 3287              		.align	2
 3288              		.global	RME_Diff_Prc_Thd_Sig_Testinit
 3289              		.syntax unified
 3290              		.arm
 3292              	RME_Diff_Prc_Thd_Sig_Testinit:
 3293              	.LFB32:
 211:Source/rme_benchmark.c **** 	ret_t Retval;
 3294              		.loc 1 211 1 is_stmt 1 view -0
 3295              		.cfi_startproc
 3296              		@ args = 0, pretend = 0, frame = 0
 3297              		@ frame_needed = 0, uses_anonymous_args = 0
 212:Source/rme_benchmark.c **** 	//Cur_addr=RME_BOOT_BENCH_PGT_RADDR;
 3298              		.loc 1 212 2 view .LVU899
 215:Source/rme_benchmark.c **** 	USR_DBG_S("\r\ncreate a signal end point      retval= ");
 3299              		.loc 1 215 2 view .LVU900
 3300              	.LVL258:
 3301              	.LBB673:
 3302              	.LBI673:
ARM GAS  C:\Users\even\AppData\Local\Temp\ccu0RqlP.s 			page 100


 189:Include/sys.h ****                   cid_t Cap_Sig)
 3303              		.loc 2 189 7 view .LVU901
 3304              	.LBB674:
 192:Include/sys.h ****                    Cap_Cpt,
 3305              		.loc 2 192 5 view .LVU902
 192:Include/sys.h ****                    Cap_Cpt,
 3306              		.loc 2 192 12 is_stmt 0 view .LVU903
 3307 0000 0030A0E3 		mov	r3, #0
 3308              	.LBE674:
 3309              	.LBE673:
 211:Source/rme_benchmark.c **** 	ret_t Retval;
 3310              		.loc 1 211 1 view .LVU904
 3311 0004 F0412DE9 		push	{r4, r5, r6, r7, r8, lr}
 3312              		.cfi_def_cfa_offset 24
 3313              		.cfi_offset 4, -24
 3314              		.cfi_offset 5, -20
 3315              		.cfi_offset 6, -16
 3316              		.cfi_offset 7, -12
 3317              		.cfi_offset 8, -8
 3318              		.cfi_offset 14, -4
 3319              	.LBB678:
 3320              	.LBB675:
 192:Include/sys.h ****                    Cap_Cpt,
 3321              		.loc 2 192 12 view .LVU905
 3322 0008 0D10A0E3 		mov	r1, #13
 3323 000c 0320A0E1 		mov	r2, r3
 3324              	.LBE675:
 3325              	.LBE678:
 211:Source/rme_benchmark.c **** 	ret_t Retval;
 3326              		.loc 1 211 1 view .LVU906
 3327 0010 18D04DE2 		sub	sp, sp, #24
 3328              		.cfi_def_cfa_offset 48
 3329              	.LBB679:
 3330              	.LBB676:
 192:Include/sys.h ****                    Cap_Cpt,
 3331              		.loc 2 192 12 view .LVU907
 3332 0014 1D08A0E3 		mov	r0, #1900544
 3333 0018 FEFFFFEB 		bl	RME_Svc
 3334              	.LVL259:
 3335 001c 001000E3 		movw	r1, #:lower16:.LC14
 3336              	.LBE676:
 3337              	.LBE679:
 3338              	.LBB680:
 3339              	.LBB681:
 3340              	.LBB682:
 3341              	.LBB683:
 222:Include/benchmark.h ****     return 0;
 3342              		.loc 3 222 5 discriminator 1 view .LVU908
 3343 0020 012AA0E3 		mov	r2, #4096
 3344 0024 001040E3 		movt	r1, #:upper16:.LC14
 3345              	.LBE683:
 3346              	.LBE682:
 3347              	.LBE681:
 3348              	.LBE680:
 3349              	.LBB691:
 3350              	.LBB677:
 196:Include/sys.h **** }
ARM GAS  C:\Users\even\AppData\Local\Temp\ccu0RqlP.s 			page 101


 3351              		.loc 2 196 23 is_stmt 1 view .LVU909
 3352              	.LVL260:
 196:Include/sys.h **** }
 3353              		.loc 2 196 23 is_stmt 0 view .LVU910
 3354              	.LBE677:
 3355              	.LBE691:
 216:Source/rme_benchmark.c **** 	USR_DBG_I(Retval);
 3356              		.loc 1 216 2 is_stmt 1 view .LVU911
 3357              	.LBB692:
 3358              	.LBI680:
 368:Include/benchmark.h **** {
 3359              		.loc 3 368 7 view .LVU912
 3360              	.LBB690:
 370:Include/benchmark.h **** 
 3361              		.loc 3 370 5 view .LVU913
 372:Include/benchmark.h ****     {
 3362              		.loc 3 372 5 view .LVU914
 372:Include/benchmark.h ****     {
 3363              		.loc 3 372 23 discriminator 1 view .LVU915
 3364              	.LBB687:
 3365              	.LBB684:
 222:Include/benchmark.h ****     return 0;
 3366              		.loc 3 222 5 is_stmt 0 discriminator 1 view .LVU916
 3367 0028 00204EE3 		movt	r2, 57344
 3368 002c FFE081E2 		add	lr, r1, #255
 3369              	.LVL261:
 3370              	.L265:
 222:Include/benchmark.h ****     return 0;
 3371              		.loc 3 222 5 discriminator 1 view .LVU917
 3372              	.LBE684:
 3373              	.LBE687:
 374:Include/benchmark.h ****         {
 3374              		.loc 3 374 9 is_stmt 1 view .LVU918
 374:Include/benchmark.h ****         {
 3375              		.loc 3 374 18 is_stmt 0 view .LVU919
 3376 0030 D1C0D1E0 		ldrsb	ip, [r1], #1
 3377              	.LVL262:
 374:Include/benchmark.h ****         {
 3378              		.loc 3 374 11 view .LVU920
 3379 0034 00005CE3 		cmp	ip, #0
 3380 0038 0500000A 		beq	.L263
 3381              	.L264:
 3382              	.LBB688:
 3383              	.LBB685:
 222:Include/benchmark.h ****     return 0;
 3384              		.loc 3 222 5 is_stmt 1 discriminator 1 view .LVU921
 3385 003c 2C3092E5 		ldr	r3, [r2, #44]
 3386 0040 080013E3 		tst	r3, #8
 3387 0044 FCFFFF0A 		beq	.L264
 222:Include/benchmark.h ****     return 0;
 3388              		.loc 3 222 5 discriminator 2 view .LVU922
 3389              	.LBE685:
 3390              	.LBE688:
 372:Include/benchmark.h ****     {
 3391              		.loc 3 372 23 is_stmt 0 discriminator 1 view .LVU923
 3392 0048 0E0051E1 		cmp	r1, lr
 3393              	.LBB689:
ARM GAS  C:\Users\even\AppData\Local\Temp\ccu0RqlP.s 			page 102


 3394              	.LBB686:
 222:Include/benchmark.h ****     return 0;
 3395              		.loc 3 222 5 discriminator 2 view .LVU924
 3396 004c 30C082E5 		str	ip, [r2, #48]
 222:Include/benchmark.h ****     return 0;
 3397              		.loc 3 222 5 is_stmt 1 view .LVU925
 223:Include/benchmark.h **** }
 3398              		.loc 3 223 5 view .LVU926
 3399              	.LBE686:
 3400              	.LBE689:
 372:Include/benchmark.h ****     {
 3401              		.loc 3 372 33 discriminator 2 view .LVU927
 3402              	.LVL263:
 372:Include/benchmark.h ****     {
 3403              		.loc 3 372 23 discriminator 1 view .LVU928
 3404 0050 F6FFFF1A 		bne	.L265
 3405              	.LVL264:
 3406              	.L263:
 387:Include/benchmark.h **** }
 3407              		.loc 3 387 5 view .LVU929
 387:Include/benchmark.h **** }
 3408              		.loc 3 387 5 is_stmt 0 view .LVU930
 3409              	.LBE690:
 3410              	.LBE692:
 217:Source/rme_benchmark.c **** 	/* create signal test thread */
 3411              		.loc 1 217 2 is_stmt 1 view .LVU931
 220:Source/rme_benchmark.c ****                    Cur_addr,RME_BOOT_SIG_BENCH,RME_THD_INF_TIME,(ptr_t)&RME_Stack3[2000]);
 3412              		.loc 1 220 2 is_stmt 0 view .LVU932
 3413 0054 007000E3 		movw	r7, #:lower16:Cur_addr
 3414 0058 005000E3 		movw	r5, #:lower16:.LC15
 217:Source/rme_benchmark.c **** 	/* create signal test thread */
 3415              		.loc 1 217 2 view .LVU933
 3416 005c FEFFFFEB 		bl	USR_DBG_I
 3417              	.LVL265:
 220:Source/rme_benchmark.c ****                    Cur_addr,RME_BOOT_SIG_BENCH,RME_THD_INF_TIME,(ptr_t)&RME_Stack3[2000]);
 3418              		.loc 1 220 2 is_stmt 1 view .LVU934
 3419 0060 007040E3 		movt	r7, #:upper16:Cur_addr
 3420 0064 B4349FE5 		ldr	r3, .L397
 3421 0068 000097E5 		ldr	r0, [r7]
 3422 006c 001000E3 		movw	r1, #:lower16:RME_Diff_Prc_Thd_Sig_Test_Thd_recv
 3423 0070 0621E0E3 		mvn	r2, #-2147483647
 3424 0074 001040E3 		movt	r1, #:upper16:RME_Diff_Prc_Thd_Sig_Test_Thd_recv
 3425 0078 10308DE5 		str	r3, [sp, #16]
 3426 007c 0D30A0E3 		mov	r3, #13
 3427 0080 0C208DE5 		str	r2, [sp, #12]
 3428 0084 0420A0E3 		mov	r2, #4
 3429 0088 08308DE5 		str	r3, [sp, #8]
 3430 008c 0530A0E3 		mov	r3, #5
 3431 0090 04008DE5 		str	r0, [sp, #4]
 3432 0094 0200A0E3 		mov	r0, #2
 3433 0098 00108DE5 		str	r1, [sp]
 3434 009c 0F10A0E3 		mov	r1, #15
 3435 00a0 FEFFFFEB 		bl	RME_Thd_Create
 3436              	.LVL266:
 222:Source/rme_benchmark.c **** 
 3437              		.loc 1 222 2 view .LVU935
 3438 00a4 005040E3 		movt	r5, #:upper16:.LC15
ARM GAS  C:\Users\even\AppData\Local\Temp\ccu0RqlP.s 			page 103


 3439              	.LBB693:
 3440              	.LBB694:
 3441              	.LBB695:
 3442              	.LBB696:
 222:Include/benchmark.h ****     return 0;
 3443              		.loc 3 222 5 is_stmt 0 discriminator 1 view .LVU936
 3444 00a8 012AA0E3 		mov	r2, #4096
 3445 00ac FF6085E2 		add	r6, r5, #255
 3446              	.LBE696:
 3447              	.LBE695:
 3448              	.LBE694:
 3449              	.LBE693:
 222:Source/rme_benchmark.c **** 
 3450              		.loc 1 222 10 view .LVU937
 3451 00b0 0510A0E1 		mov	r1, r5
 3452              	.LBB705:
 3453              	.LBB703:
 3454              	.LBB700:
 3455              	.LBB697:
 222:Include/benchmark.h ****     return 0;
 3456              		.loc 3 222 5 discriminator 1 view .LVU938
 3457 00b4 00204EE3 		movt	r2, 57344
 3458              	.LBE697:
 3459              	.LBE700:
 3460              	.LBE703:
 3461              	.LBE705:
 222:Source/rme_benchmark.c **** 
 3462              		.loc 1 222 10 view .LVU939
 3463 00b8 0638A0E3 		mov	r3, #393216
 3464 00bc 003087E5 		str	r3, [r7]
 224:Source/rme_benchmark.c **** 
 3465              		.loc 1 224 6 is_stmt 1 view .LVU940
 227:Source/rme_benchmark.c **** 	    USR_DBG_H(Cur_addr);
 3466              		.loc 1 227 3 view .LVU941
 3467              	.LVL267:
 3468              	.LBB706:
 3469              	.LBI693:
 368:Include/benchmark.h **** {
 3470              		.loc 3 368 7 view .LVU942
 3471              	.LBB704:
 370:Include/benchmark.h **** 
 3472              		.loc 3 370 5 view .LVU943
 372:Include/benchmark.h ****     {
 3473              		.loc 3 372 5 view .LVU944
 372:Include/benchmark.h ****     {
 3474              		.loc 3 372 23 discriminator 1 view .LVU945
 3475              	.L268:
 374:Include/benchmark.h ****         {
 3476              		.loc 3 374 9 view .LVU946
 374:Include/benchmark.h ****         {
 3477              		.loc 3 374 18 is_stmt 0 view .LVU947
 3478 00c0 D100D1E0 		ldrsb	r0, [r1], #1
 3479              	.LVL268:
 374:Include/benchmark.h ****         {
 3480              		.loc 3 374 11 view .LVU948
 3481 00c4 000050E3 		cmp	r0, #0
 3482 00c8 0500000A 		beq	.L266
ARM GAS  C:\Users\even\AppData\Local\Temp\ccu0RqlP.s 			page 104


 3483              	.L267:
 3484              	.LBB701:
 3485              	.LBB698:
 222:Include/benchmark.h ****     return 0;
 3486              		.loc 3 222 5 is_stmt 1 discriminator 1 view .LVU949
 3487 00cc 2C3092E5 		ldr	r3, [r2, #44]
 3488 00d0 080013E3 		tst	r3, #8
 3489 00d4 FCFFFF0A 		beq	.L267
 222:Include/benchmark.h ****     return 0;
 3490              		.loc 3 222 5 discriminator 2 view .LVU950
 3491              	.LBE698:
 3492              	.LBE701:
 372:Include/benchmark.h ****     {
 3493              		.loc 3 372 23 is_stmt 0 discriminator 1 view .LVU951
 3494 00d8 060051E1 		cmp	r1, r6
 3495              	.LBB702:
 3496              	.LBB699:
 222:Include/benchmark.h ****     return 0;
 3497              		.loc 3 222 5 discriminator 2 view .LVU952
 3498 00dc 300082E5 		str	r0, [r2, #48]
 222:Include/benchmark.h ****     return 0;
 3499              		.loc 3 222 5 is_stmt 1 view .LVU953
 223:Include/benchmark.h **** }
 3500              		.loc 3 223 5 view .LVU954
 3501              	.LBE699:
 3502              	.LBE702:
 372:Include/benchmark.h ****     {
 3503              		.loc 3 372 33 discriminator 2 view .LVU955
 3504              	.LVL269:
 372:Include/benchmark.h ****     {
 3505              		.loc 3 372 23 discriminator 1 view .LVU956
 3506 00e0 F6FFFF1A 		bne	.L268
 3507              	.LVL270:
 3508              	.L266:
 387:Include/benchmark.h **** }
 3509              		.loc 3 387 5 view .LVU957
 387:Include/benchmark.h **** }
 3510              		.loc 3 387 5 is_stmt 0 view .LVU958
 3511              	.LBE704:
 3512              	.LBE706:
 228:Source/rme_benchmark.c **** 		Retval=RME_Pgt_Crt(RME_BOOT_INIT_CPT,RME_BOOT_INIT_KOM,RME_BOOT_BENCH_PGT,
 3513              		.loc 1 228 6 is_stmt 1 view .LVU959
 3514 00e4 000097E5 		ldr	r0, [r7]
 3515 00e8 FEFFFFEB 		bl	USR_DBG_H
 3516              	.LVL271:
 229:Source/rme_benchmark.c **** 				RME_BOOT_BENCH_PGT_RADDR,0x00000000U,RME_PGT_TOP,RME_PGT_SIZE_1M,RME_PGT_NUM_4K);
 3517              		.loc 1 229 3 view .LVU960
 3518              	.LBB707:
 3519              	.LBI707:
 385:Include/sys.h ****                       cid_t Cap_Kom,
 3520              		.loc 2 385 7 view .LVU961
 3521              	.LBB708:
 395:Include/sys.h ****                    Cap_Cpt,
 3522              		.loc 2 395 5 view .LVU962
 395:Include/sys.h ****                    Cap_Cpt,
 3523              		.loc 2 395 12 is_stmt 0 view .LVU963
 3524 00ec 141900E3 		movw	r1, #2324
ARM GAS  C:\Users\even\AppData\Local\Temp\ccu0RqlP.s 			page 105


 3525 00f0 0000A0E3 		mov	r0, #0
 3526 00f4 0628A0E3 		mov	r2, #393216
 3527 00f8 051040E3 		movt	r1, 5
 3528 00fc 0130A0E3 		mov	r3, #1
 3529 0100 0F0C40E3 		movt	r0, 3087
 3530 0104 FEFFFFEB 		bl	RME_Svc
 3531              	.LVL272:
 3532 0108 001000E3 		movw	r1, #:lower16:.LC16
 399:Include/sys.h **** }
 3533              		.loc 2 399 32 is_stmt 1 view .LVU964
 3534              	.LVL273:
 399:Include/sys.h **** }
 3535              		.loc 2 399 32 is_stmt 0 view .LVU965
 3536              	.LBE708:
 3537              	.LBE707:
 232:Source/rme_benchmark.c **** 		USR_DBG_I(Retval);
 3538              		.loc 1 232 3 is_stmt 1 view .LVU966
 3539              	.LBB709:
 3540              	.LBI709:
 368:Include/benchmark.h **** {
 3541              		.loc 3 368 7 view .LVU967
 3542              	.LBB710:
 370:Include/benchmark.h **** 
 3543              		.loc 3 370 5 view .LVU968
 372:Include/benchmark.h ****     {
 3544              		.loc 3 372 5 view .LVU969
 372:Include/benchmark.h ****     {
 3545              		.loc 3 372 23 discriminator 1 view .LVU970
 3546              	.LBB711:
 3547              	.LBB712:
 222:Include/benchmark.h ****     return 0;
 3548              		.loc 3 222 5 is_stmt 0 discriminator 1 view .LVU971
 3549 010c 012AA0E3 		mov	r2, #4096
 3550 0110 001040E3 		movt	r1, #:upper16:.LC16
 3551 0114 00204EE3 		movt	r2, 57344
 3552 0118 FFE081E2 		add	lr, r1, #255
 3553              	.LVL274:
 3554              	.L271:
 222:Include/benchmark.h ****     return 0;
 3555              		.loc 3 222 5 discriminator 1 view .LVU972
 3556              	.LBE712:
 3557              	.LBE711:
 374:Include/benchmark.h ****         {
 3558              		.loc 3 374 9 is_stmt 1 view .LVU973
 374:Include/benchmark.h ****         {
 3559              		.loc 3 374 18 is_stmt 0 view .LVU974
 3560 011c D1C0D1E0 		ldrsb	ip, [r1], #1
 3561              	.LVL275:
 374:Include/benchmark.h ****         {
 3562              		.loc 3 374 11 view .LVU975
 3563 0120 00005CE3 		cmp	ip, #0
 3564 0124 0500000A 		beq	.L269
 3565              	.L270:
 3566              	.LBB715:
 3567              	.LBB713:
 222:Include/benchmark.h ****     return 0;
 3568              		.loc 3 222 5 is_stmt 1 discriminator 1 view .LVU976
ARM GAS  C:\Users\even\AppData\Local\Temp\ccu0RqlP.s 			page 106


 3569 0128 2C3092E5 		ldr	r3, [r2, #44]
 3570 012c 080013E3 		tst	r3, #8
 3571 0130 FCFFFF0A 		beq	.L270
 222:Include/benchmark.h ****     return 0;
 3572              		.loc 3 222 5 discriminator 2 view .LVU977
 3573              	.LBE713:
 3574              	.LBE715:
 372:Include/benchmark.h ****     {
 3575              		.loc 3 372 23 is_stmt 0 discriminator 1 view .LVU978
 3576 0134 01005EE1 		cmp	lr, r1
 3577              	.LBB716:
 3578              	.LBB714:
 222:Include/benchmark.h ****     return 0;
 3579              		.loc 3 222 5 discriminator 2 view .LVU979
 3580 0138 30C082E5 		str	ip, [r2, #48]
 222:Include/benchmark.h ****     return 0;
 3581              		.loc 3 222 5 is_stmt 1 view .LVU980
 223:Include/benchmark.h **** }
 3582              		.loc 3 223 5 view .LVU981
 3583              	.LBE714:
 3584              	.LBE716:
 372:Include/benchmark.h ****     {
 3585              		.loc 3 372 33 discriminator 2 view .LVU982
 3586              	.LVL276:
 372:Include/benchmark.h ****     {
 3587              		.loc 3 372 23 discriminator 1 view .LVU983
 3588 013c F6FFFF1A 		bne	.L271
 3589              	.LVL277:
 3590              	.L269:
 387:Include/benchmark.h **** }
 3591              		.loc 3 387 5 view .LVU984
 387:Include/benchmark.h **** }
 3592              		.loc 3 387 5 is_stmt 0 view .LVU985
 3593              	.LBE710:
 3594              	.LBE709:
 233:Source/rme_benchmark.c **** 
 3595              		.loc 1 233 3 is_stmt 1 view .LVU986
 3596              	.LBB717:
 3597              	.LBB718:
 458:Include/sys.h ****                    RME_PARAM_D0(Flag_Dst),
 3598              		.loc 2 458 12 is_stmt 0 view .LVU987
 3599 0140 1F80A0E3 		mov	r8, #31
 3600              	.LBE718:
 3601              	.LBE717:
 236:Source/rme_benchmark.c **** 		    {
 3602              		.loc 1 236 12 view .LVU988
 3603 0144 0040A0E3 		mov	r4, #0
 3604              	.LBB722:
 3605              	.LBB719:
 458:Include/sys.h ****                    RME_PARAM_D0(Flag_Dst),
 3606              		.loc 2 458 12 view .LVU989
 3607 0148 118040E3 		movt	r8, 17
 3608              	.LBE719:
 3609              	.LBE722:
 233:Source/rme_benchmark.c **** 
 3610              		.loc 1 233 3 view .LVU990
 3611 014c FEFFFFEB 		bl	USR_DBG_I
ARM GAS  C:\Users\even\AppData\Local\Temp\ccu0RqlP.s 			page 107


 3612              	.LVL278:
 236:Source/rme_benchmark.c **** 		    {
 3613              		.loc 1 236 3 is_stmt 1 view .LVU991
 236:Source/rme_benchmark.c **** 		    {
 3614              		.loc 1 236 21 discriminator 1 view .LVU992
 3615              	.L272:
 238:Source/rme_benchmark.c **** 											 RME_BOOT_INIT_PGT,
 3616              		.loc 1 238 4 view .LVU993
 3617              	.LBB723:
 3618              	.LBI717:
 451:Include/sys.h ****                       ptr_t Pos_Dst,
 3619              		.loc 2 451 7 view .LVU994
 3620              	.LBB720:
 458:Include/sys.h ****                    RME_PARAM_D0(Flag_Dst),
 3621              		.loc 2 458 5 view .LVU995
 458:Include/sys.h ****                    RME_PARAM_D0(Flag_Dst),
 3622              		.loc 2 458 12 is_stmt 0 view .LVU996
 3623 0150 012884E3 		orr	r2, r4, #65536
 3624 0154 091884E3 		orr	r1, r4, #589824
 3625 0158 0030A0E3 		mov	r3, #0
 3626 015c 0800A0E1 		mov	r0, r8
 3627              	.LBE720:
 3628              	.LBE723:
 236:Source/rme_benchmark.c **** 		    {
 3629              		.loc 1 236 34 discriminator 3 view .LVU997
 3630 0160 014084E2 		add	r4, r4, #1
 3631              	.LVL279:
 3632              	.LBB724:
 3633              	.LBB721:
 458:Include/sys.h ****                    RME_PARAM_D0(Flag_Dst),
 3634              		.loc 2 458 12 view .LVU998
 3635 0164 FEFFFFEB 		bl	RME_Svc
 3636              	.LVL280:
 462:Include/sys.h **** }
 3637              		.loc 2 462 26 is_stmt 1 view .LVU999
 462:Include/sys.h **** }
 3638              		.loc 2 462 26 is_stmt 0 view .LVU1000
 3639              	.LBE721:
 3640              	.LBE724:
 236:Source/rme_benchmark.c **** 		    {
 3641              		.loc 1 236 34 is_stmt 1 discriminator 3 view .LVU1001
 236:Source/rme_benchmark.c **** 		    {
 3642              		.loc 1 236 21 discriminator 1 view .LVU1002
 3643 0168 010B54E3 		cmp	r4, #1024
 3644 016c F7FFFF1A 		bne	.L272
 3645              	.LBB725:
 3646              	.LBB726:
 458:Include/sys.h ****                    RME_PARAM_D0(Flag_Dst),
 3647              		.loc 2 458 12 is_stmt 0 view .LVU1003
 3648 0170 0380A0E3 		mov	r8, #3
 3649 0174 118040E3 		movt	r8, 17
 3650              	.LVL281:
 3651              	.L273:
 458:Include/sys.h ****                    RME_PARAM_D0(Flag_Dst),
 3652              		.loc 2 458 12 view .LVU1004
 3653              	.LBE726:
 3654              	.LBE725:
ARM GAS  C:\Users\even\AppData\Local\Temp\ccu0RqlP.s 			page 108


 248:Source/rme_benchmark.c **** 											 RME_PGT_READ|RME_PGT_WRITE,
 3655              		.loc 1 248 8 is_stmt 1 view .LVU1005
 3656              	.LBB729:
 3657              	.LBI725:
 451:Include/sys.h ****                       ptr_t Pos_Dst,
 3658              		.loc 2 451 7 view .LVU1006
 3659              	.LBB727:
 458:Include/sys.h ****                    RME_PARAM_D0(Flag_Dst),
 3660              		.loc 2 458 5 view .LVU1007
 458:Include/sys.h ****                    RME_PARAM_D0(Flag_Dst),
 3661              		.loc 2 458 12 is_stmt 0 view .LVU1008
 3662 0178 012884E3 		orr	r2, r4, #65536
 3663 017c 091884E3 		orr	r1, r4, #589824
 3664 0180 0030A0E3 		mov	r3, #0
 3665 0184 0800A0E1 		mov	r0, r8
 3666              	.LBE727:
 3667              	.LBE729:
 246:Source/rme_benchmark.c **** 		    {
 3668              		.loc 1 246 25 discriminator 1 view .LVU1009
 3669 0188 014084E2 		add	r4, r4, #1
 3670              	.LVL282:
 3671              	.LBB730:
 3672              	.LBB728:
 458:Include/sys.h ****                    RME_PARAM_D0(Flag_Dst),
 3673              		.loc 2 458 12 view .LVU1010
 3674 018c FEFFFFEB 		bl	RME_Svc
 3675              	.LVL283:
 462:Include/sys.h **** }
 3676              		.loc 2 462 26 is_stmt 1 view .LVU1011
 462:Include/sys.h **** }
 3677              		.loc 2 462 26 is_stmt 0 view .LVU1012
 3678              	.LBE728:
 3679              	.LBE730:
 246:Source/rme_benchmark.c **** 		    {
 3680              		.loc 1 246 38 is_stmt 1 discriminator 3 view .LVU1013
 246:Source/rme_benchmark.c **** 		    {
 3681              		.loc 1 246 25 discriminator 1 view .LVU1014
 3682 0190 060C54E3 		cmp	r4, #1536
 3683 0194 F7FFFF1A 		bne	.L273
 3684              	.LBB731:
 3685              	.LBB732:
 458:Include/sys.h ****                    RME_PARAM_D0(Flag_Dst),
 3686              		.loc 2 458 12 is_stmt 0 view .LVU1015
 3687 0198 0380A0E3 		mov	r8, #3
 3688 019c 118040E3 		movt	r8, 17
 3689              	.L274:
 3690              	.LVL284:
 458:Include/sys.h ****                    RME_PARAM_D0(Flag_Dst),
 3691              		.loc 2 458 12 view .LVU1016
 3692              	.LBE732:
 3693              	.LBE731:
 260:Source/rme_benchmark.c **** 		    								 RME_PGT_READ|RME_PGT_WRITE,
 3694              		.loc 1 260 8 is_stmt 1 view .LVU1017
 3695              	.LBB735:
 3696              	.LBI731:
 451:Include/sys.h ****                       ptr_t Pos_Dst,
 3697              		.loc 2 451 7 view .LVU1018
ARM GAS  C:\Users\even\AppData\Local\Temp\ccu0RqlP.s 			page 109


 3698              	.LBB733:
 458:Include/sys.h ****                    RME_PARAM_D0(Flag_Dst),
 3699              		.loc 2 458 5 view .LVU1019
 458:Include/sys.h ****                    RME_PARAM_D0(Flag_Dst),
 3700              		.loc 2 458 12 is_stmt 0 view .LVU1020
 3701 01a0 012884E3 		orr	r2, r4, #65536
 3702 01a4 091884E3 		orr	r1, r4, #589824
 3703 01a8 0030A0E3 		mov	r3, #0
 3704 01ac 0800A0E1 		mov	r0, r8
 3705              	.LBE733:
 3706              	.LBE735:
 258:Source/rme_benchmark.c **** 		    {
 3707              		.loc 1 258 25 discriminator 1 view .LVU1021
 3708 01b0 014084E2 		add	r4, r4, #1
 3709              	.LVL285:
 3710              	.LBB736:
 3711              	.LBB734:
 458:Include/sys.h ****                    RME_PARAM_D0(Flag_Dst),
 3712              		.loc 2 458 12 view .LVU1022
 3713 01b4 FEFFFFEB 		bl	RME_Svc
 3714              	.LVL286:
 462:Include/sys.h **** }
 3715              		.loc 2 462 26 is_stmt 1 view .LVU1023
 462:Include/sys.h **** }
 3716              		.loc 2 462 26 is_stmt 0 view .LVU1024
 3717              	.LBE734:
 3718              	.LBE736:
 258:Source/rme_benchmark.c **** 		    {
 3719              		.loc 1 258 38 is_stmt 1 discriminator 3 view .LVU1025
 258:Source/rme_benchmark.c **** 		    {
 3720              		.loc 1 258 25 discriminator 1 view .LVU1026
 3721 01b8 020B54E3 		cmp	r4, #2048
 3722 01bc F7FFFF1A 		bne	.L274
 3723 01c0 001000E3 		movw	r1, #:lower16:.LC17
 3724              	.LBB737:
 3725              	.LBB738:
 3726              	.LBB739:
 3727              	.LBB740:
 222:Include/benchmark.h ****     return 0;
 3728              		.loc 3 222 5 is_stmt 0 discriminator 1 view .LVU1027
 3729 01c4 012AA0E3 		mov	r2, #4096
 3730 01c8 001040E3 		movt	r1, #:upper16:.LC17
 3731 01cc 00204EE3 		movt	r2, 57344
 3732 01d0 FFC081E2 		add	ip, r1, #255
 3733              	.L277:
 3734              	.LVL287:
 222:Include/benchmark.h ****     return 0;
 3735              		.loc 3 222 5 discriminator 1 view .LVU1028
 3736              	.LBE740:
 3737              	.LBE739:
 374:Include/benchmark.h ****         {
 3738              		.loc 3 374 9 is_stmt 1 view .LVU1029
 374:Include/benchmark.h ****         {
 3739              		.loc 3 374 18 is_stmt 0 view .LVU1030
 3740 01d4 D100D1E0 		ldrsb	r0, [r1], #1
 3741              	.LVL288:
 374:Include/benchmark.h ****         {
ARM GAS  C:\Users\even\AppData\Local\Temp\ccu0RqlP.s 			page 110


 3742              		.loc 3 374 11 view .LVU1031
 3743 01d8 000050E3 		cmp	r0, #0
 3744 01dc 0500000A 		beq	.L275
 3745              	.L276:
 3746              	.LBB743:
 3747              	.LBB741:
 222:Include/benchmark.h ****     return 0;
 3748              		.loc 3 222 5 is_stmt 1 discriminator 1 view .LVU1032
 3749 01e0 2C3092E5 		ldr	r3, [r2, #44]
 3750 01e4 080013E3 		tst	r3, #8
 3751 01e8 FCFFFF0A 		beq	.L276
 222:Include/benchmark.h ****     return 0;
 3752              		.loc 3 222 5 discriminator 2 view .LVU1033
 3753              	.LBE741:
 3754              	.LBE743:
 372:Include/benchmark.h ****     {
 3755              		.loc 3 372 23 is_stmt 0 discriminator 1 view .LVU1034
 3756 01ec 0C0051E1 		cmp	r1, ip
 3757              	.LBB744:
 3758              	.LBB742:
 222:Include/benchmark.h ****     return 0;
 3759              		.loc 3 222 5 discriminator 2 view .LVU1035
 3760 01f0 300082E5 		str	r0, [r2, #48]
 222:Include/benchmark.h ****     return 0;
 3761              		.loc 3 222 5 is_stmt 1 view .LVU1036
 223:Include/benchmark.h **** }
 3762              		.loc 3 223 5 view .LVU1037
 3763              	.LBE742:
 3764              	.LBE744:
 372:Include/benchmark.h ****     {
 3765              		.loc 3 372 33 discriminator 2 view .LVU1038
 3766              	.LVL289:
 372:Include/benchmark.h ****     {
 3767              		.loc 3 372 23 discriminator 1 view .LVU1039
 3768 01f4 F6FFFF1A 		bne	.L277
 3769              	.LVL290:
 3770              	.L275:
 387:Include/benchmark.h **** }
 3771              		.loc 3 387 5 view .LVU1040
 3772              	.LBE738:
 3773              	.LBE737:
 269:Source/rme_benchmark.c **** 		    USR_DBG_S(" @ ");
 3774              		.loc 1 269 7 view .LVU1041
 269:Source/rme_benchmark.c **** 		    USR_DBG_S(" @ ");
 3775              		.loc 1 269 17 is_stmt 0 view .LVU1042
 3776 01f8 003097E5 		ldr	r3, [r7]
 3777 01fc 008000E3 		movw	r8, #:lower16:.LC18
 3778 0200 008040E3 		movt	r8, #:upper16:.LC18
 3779 0204 FF4088E2 		add	r4, r8, #255
 3780 0208 813483E2 		add	r3, r3, #-2130706432
 269:Source/rme_benchmark.c **** 		    USR_DBG_S(" @ ");
 3781              		.loc 1 269 7 view .LVU1043
 3782 020c 000093E5 		ldr	r0, [r3]
 3783 0210 FEFFFFEB 		bl	USR_DBG_H
 3784              	.LVL291:
 270:Source/rme_benchmark.c **** 		    USR_DBG_H(Cur_addr+RME_KOM_VA_BASE);
 3785              		.loc 1 270 7 is_stmt 1 view .LVU1044
ARM GAS  C:\Users\even\AppData\Local\Temp\ccu0RqlP.s 			page 111


 3786              	.LBB745:
 3787              	.LBI745:
 368:Include/benchmark.h **** {
 3788              		.loc 3 368 7 view .LVU1045
 3789              	.LBB746:
 370:Include/benchmark.h **** 
 3790              		.loc 3 370 5 view .LVU1046
 372:Include/benchmark.h ****     {
 3791              		.loc 3 372 5 view .LVU1047
 372:Include/benchmark.h ****     {
 3792              		.loc 3 372 23 discriminator 1 view .LVU1048
 3793              	.LBB747:
 3794              	.LBB748:
 222:Include/benchmark.h ****     return 0;
 3795              		.loc 3 222 5 is_stmt 0 discriminator 1 view .LVU1049
 3796 0214 012AA0E3 		mov	r2, #4096
 3797              	.LBE748:
 3798              	.LBE747:
 3799              	.LBE746:
 3800              	.LBE745:
 269:Source/rme_benchmark.c **** 		    USR_DBG_S(" @ ");
 3801              		.loc 1 269 7 view .LVU1050
 3802 0218 0810A0E1 		mov	r1, r8
 3803              	.LBB756:
 3804              	.LBB755:
 3805              	.LBB752:
 3806              	.LBB749:
 222:Include/benchmark.h ****     return 0;
 3807              		.loc 3 222 5 discriminator 1 view .LVU1051
 3808 021c 00204EE3 		movt	r2, 57344
 3809              	.LVL292:
 3810              	.L280:
 222:Include/benchmark.h ****     return 0;
 3811              		.loc 3 222 5 discriminator 1 view .LVU1052
 3812              	.LBE749:
 3813              	.LBE752:
 374:Include/benchmark.h ****         {
 3814              		.loc 3 374 9 is_stmt 1 view .LVU1053
 374:Include/benchmark.h ****         {
 3815              		.loc 3 374 18 is_stmt 0 view .LVU1054
 3816 0220 D100D1E0 		ldrsb	r0, [r1], #1
 3817              	.LVL293:
 374:Include/benchmark.h ****         {
 3818              		.loc 3 374 11 view .LVU1055
 3819 0224 000050E3 		cmp	r0, #0
 3820 0228 0500000A 		beq	.L278
 3821              	.L279:
 3822              	.LBB753:
 3823              	.LBB750:
 222:Include/benchmark.h ****     return 0;
 3824              		.loc 3 222 5 is_stmt 1 discriminator 1 view .LVU1056
 3825 022c 2C3092E5 		ldr	r3, [r2, #44]
 3826 0230 080013E3 		tst	r3, #8
 3827 0234 FCFFFF0A 		beq	.L279
 222:Include/benchmark.h ****     return 0;
 3828              		.loc 3 222 5 discriminator 2 view .LVU1057
 3829              	.LBE750:
ARM GAS  C:\Users\even\AppData\Local\Temp\ccu0RqlP.s 			page 112


 3830              	.LBE753:
 372:Include/benchmark.h ****     {
 3831              		.loc 3 372 23 is_stmt 0 discriminator 1 view .LVU1058
 3832 0238 010054E1 		cmp	r4, r1
 3833              	.LBB754:
 3834              	.LBB751:
 222:Include/benchmark.h ****     return 0;
 3835              		.loc 3 222 5 discriminator 2 view .LVU1059
 3836 023c 300082E5 		str	r0, [r2, #48]
 222:Include/benchmark.h ****     return 0;
 3837              		.loc 3 222 5 is_stmt 1 view .LVU1060
 223:Include/benchmark.h **** }
 3838              		.loc 3 223 5 view .LVU1061
 3839              	.LBE751:
 3840              	.LBE754:
 372:Include/benchmark.h ****     {
 3841              		.loc 3 372 33 discriminator 2 view .LVU1062
 3842              	.LVL294:
 372:Include/benchmark.h ****     {
 3843              		.loc 3 372 23 discriminator 1 view .LVU1063
 3844 0240 F6FFFF1A 		bne	.L280
 3845              	.LVL295:
 3846              	.L278:
 387:Include/benchmark.h **** }
 3847              		.loc 3 387 5 view .LVU1064
 387:Include/benchmark.h **** }
 3848              		.loc 3 387 5 is_stmt 0 view .LVU1065
 3849              	.LBE755:
 3850              	.LBE756:
 271:Source/rme_benchmark.c **** 
 3851              		.loc 1 271 7 is_stmt 1 view .LVU1066
 3852 0244 000097E5 		ldr	r0, [r7]
 3853 0248 810480E2 		add	r0, r0, #-2130706432
 3854 024c FEFFFFEB 		bl	USR_DBG_H
 3855              	.LVL296:
 273:Source/rme_benchmark.c **** 		    USR_DBG_H(RME_A7A_REG(Cur_addr+0x080*RME_WORD_BYTE+RME_KOM_VA_BASE));
 3856              		.loc 1 273 7 view .LVU1067
 3857              	.LBB757:
 3858              	.LBI757:
 368:Include/benchmark.h **** {
 3859              		.loc 3 368 7 view .LVU1068
 3860              	.LBB758:
 370:Include/benchmark.h **** 
 3861              		.loc 3 370 5 view .LVU1069
 372:Include/benchmark.h ****     {
 3862              		.loc 3 372 5 view .LVU1070
 372:Include/benchmark.h ****     {
 3863              		.loc 3 372 23 discriminator 1 view .LVU1071
 3864 0250 001000E3 		movw	r1, #:lower16:.LC19
 3865              	.LBB759:
 3866              	.LBB760:
 222:Include/benchmark.h ****     return 0;
 3867              		.loc 3 222 5 is_stmt 0 discriminator 1 view .LVU1072
 3868 0254 012AA0E3 		mov	r2, #4096
 3869 0258 001040E3 		movt	r1, #:upper16:.LC19
 3870 025c 00204EE3 		movt	r2, 57344
 3871 0260 FFC081E2 		add	ip, r1, #255
ARM GAS  C:\Users\even\AppData\Local\Temp\ccu0RqlP.s 			page 113


 3872              	.LVL297:
 3873              	.L283:
 222:Include/benchmark.h ****     return 0;
 3874              		.loc 3 222 5 discriminator 1 view .LVU1073
 3875              	.LBE760:
 3876              	.LBE759:
 374:Include/benchmark.h ****         {
 3877              		.loc 3 374 9 is_stmt 1 view .LVU1074
 374:Include/benchmark.h ****         {
 3878              		.loc 3 374 18 is_stmt 0 view .LVU1075
 3879 0264 D100D1E0 		ldrsb	r0, [r1], #1
 3880              	.LVL298:
 374:Include/benchmark.h ****         {
 3881              		.loc 3 374 11 view .LVU1076
 3882 0268 000050E3 		cmp	r0, #0
 3883 026c 0500000A 		beq	.L281
 3884              	.L282:
 3885              	.LBB763:
 3886              	.LBB761:
 222:Include/benchmark.h ****     return 0;
 3887              		.loc 3 222 5 is_stmt 1 discriminator 1 view .LVU1077
 3888 0270 2C3092E5 		ldr	r3, [r2, #44]
 3889 0274 080013E3 		tst	r3, #8
 3890 0278 FCFFFF0A 		beq	.L282
 222:Include/benchmark.h ****     return 0;
 3891              		.loc 3 222 5 discriminator 2 view .LVU1078
 3892              	.LBE761:
 3893              	.LBE763:
 372:Include/benchmark.h ****     {
 3894              		.loc 3 372 23 is_stmt 0 discriminator 1 view .LVU1079
 3895 027c 01005CE1 		cmp	ip, r1
 3896              	.LBB764:
 3897              	.LBB762:
 222:Include/benchmark.h ****     return 0;
 3898              		.loc 3 222 5 discriminator 2 view .LVU1080
 3899 0280 300082E5 		str	r0, [r2, #48]
 222:Include/benchmark.h ****     return 0;
 3900              		.loc 3 222 5 is_stmt 1 view .LVU1081
 223:Include/benchmark.h **** }
 3901              		.loc 3 223 5 view .LVU1082
 3902              	.LBE762:
 3903              	.LBE764:
 372:Include/benchmark.h ****     {
 3904              		.loc 3 372 33 discriminator 2 view .LVU1083
 3905              	.LVL299:
 372:Include/benchmark.h ****     {
 3906              		.loc 3 372 23 discriminator 1 view .LVU1084
 3907 0284 F6FFFF1A 		bne	.L283
 3908              	.LVL300:
 3909              	.L281:
 387:Include/benchmark.h **** }
 3910              		.loc 3 387 5 view .LVU1085
 387:Include/benchmark.h **** }
 3911              		.loc 3 387 5 is_stmt 0 view .LVU1086
 3912              	.LBE758:
 3913              	.LBE757:
 274:Source/rme_benchmark.c **** 		    USR_DBG_S(" @ ");
ARM GAS  C:\Users\even\AppData\Local\Temp\ccu0RqlP.s 			page 114


 3914              		.loc 1 274 7 is_stmt 1 view .LVU1087
 274:Source/rme_benchmark.c **** 		    USR_DBG_S(" @ ");
 3915              		.loc 1 274 17 is_stmt 0 view .LVU1088
 3916 0288 003097E5 		ldr	r3, [r7]
 3917 028c 813483E2 		add	r3, r3, #-2130706432
 274:Source/rme_benchmark.c **** 		    USR_DBG_S(" @ ");
 3918              		.loc 1 274 7 view .LVU1089
 3919 0290 000293E5 		ldr	r0, [r3, #512]
 3920 0294 FEFFFFEB 		bl	USR_DBG_H
 3921              	.LVL301:
 275:Source/rme_benchmark.c **** 		    USR_DBG_H(Cur_addr+0x080*RME_WORD_BYTE+RME_KOM_VA_BASE);
 3922              		.loc 1 275 7 is_stmt 1 view .LVU1090
 3923              	.LBB765:
 3924              	.LBI765:
 368:Include/benchmark.h **** {
 3925              		.loc 3 368 7 view .LVU1091
 3926              	.LBB766:
 370:Include/benchmark.h **** 
 3927              		.loc 3 370 5 view .LVU1092
 372:Include/benchmark.h ****     {
 3928              		.loc 3 372 5 view .LVU1093
 372:Include/benchmark.h ****     {
 3929              		.loc 3 372 23 discriminator 1 view .LVU1094
 3930              	.LBE766:
 3931              	.LBE765:
 274:Source/rme_benchmark.c **** 		    USR_DBG_S(" @ ");
 3932              		.loc 1 274 7 is_stmt 0 view .LVU1095
 3933 0298 001000E3 		movw	r1, #:lower16:.LC18
 3934              	.LBB777:
 3935              	.LBB775:
 3936              	.LBB767:
 3937              	.LBB768:
 222:Include/benchmark.h ****     return 0;
 3938              		.loc 3 222 5 discriminator 1 view .LVU1096
 3939 029c 012AA0E3 		mov	r2, #4096
 3940              	.LBE768:
 3941              	.LBE767:
 3942              	.LBE775:
 3943              	.LBE777:
 274:Source/rme_benchmark.c **** 		    USR_DBG_S(" @ ");
 3944              		.loc 1 274 7 view .LVU1097
 3945 02a0 001040E3 		movt	r1, #:upper16:.LC18
 3946              	.LBB778:
 3947              	.LBB776:
 3948              	.LBB772:
 3949              	.LBB769:
 222:Include/benchmark.h ****     return 0;
 3950              		.loc 3 222 5 discriminator 1 view .LVU1098
 3951 02a4 00204EE3 		movt	r2, 57344
 3952              	.LVL302:
 3953              	.L286:
 222:Include/benchmark.h ****     return 0;
 3954              		.loc 3 222 5 discriminator 1 view .LVU1099
 3955              	.LBE769:
 3956              	.LBE772:
 374:Include/benchmark.h ****         {
 3957              		.loc 3 374 9 is_stmt 1 view .LVU1100
ARM GAS  C:\Users\even\AppData\Local\Temp\ccu0RqlP.s 			page 115


 374:Include/benchmark.h ****         {
 3958              		.loc 3 374 18 is_stmt 0 view .LVU1101
 3959 02a8 D100D1E0 		ldrsb	r0, [r1], #1
 3960              	.LVL303:
 374:Include/benchmark.h ****         {
 3961              		.loc 3 374 11 view .LVU1102
 3962 02ac 000050E3 		cmp	r0, #0
 3963 02b0 0500000A 		beq	.L284
 3964              	.L285:
 3965              	.LBB773:
 3966              	.LBB770:
 222:Include/benchmark.h ****     return 0;
 3967              		.loc 3 222 5 is_stmt 1 discriminator 1 view .LVU1103
 3968 02b4 2C3092E5 		ldr	r3, [r2, #44]
 3969 02b8 080013E3 		tst	r3, #8
 3970 02bc FCFFFF0A 		beq	.L285
 222:Include/benchmark.h ****     return 0;
 3971              		.loc 3 222 5 discriminator 2 view .LVU1104
 3972              	.LBE770:
 3973              	.LBE773:
 372:Include/benchmark.h ****     {
 3974              		.loc 3 372 23 is_stmt 0 discriminator 1 view .LVU1105
 3975 02c0 010054E1 		cmp	r4, r1
 3976              	.LBB774:
 3977              	.LBB771:
 222:Include/benchmark.h ****     return 0;
 3978              		.loc 3 222 5 discriminator 2 view .LVU1106
 3979 02c4 300082E5 		str	r0, [r2, #48]
 222:Include/benchmark.h ****     return 0;
 3980              		.loc 3 222 5 is_stmt 1 view .LVU1107
 223:Include/benchmark.h **** }
 3981              		.loc 3 223 5 view .LVU1108
 3982              	.LBE771:
 3983              	.LBE774:
 372:Include/benchmark.h ****     {
 3984              		.loc 3 372 33 discriminator 2 view .LVU1109
 3985              	.LVL304:
 372:Include/benchmark.h ****     {
 3986              		.loc 3 372 23 discriminator 1 view .LVU1110
 3987 02c8 F6FFFF1A 		bne	.L286
 3988              	.LVL305:
 3989              	.L284:
 387:Include/benchmark.h **** }
 3990              		.loc 3 387 5 view .LVU1111
 387:Include/benchmark.h **** }
 3991              		.loc 3 387 5 is_stmt 0 view .LVU1112
 3992              	.LBE776:
 3993              	.LBE778:
 276:Source/rme_benchmark.c **** 
 3994              		.loc 1 276 7 is_stmt 1 view .LVU1113
 3995 02cc 000097E5 		ldr	r0, [r7]
 3996 02d0 810480E2 		add	r0, r0, #-2130706432
 3997 02d4 020C80E2 		add	r0, r0, #512
 3998 02d8 FEFFFFEB 		bl	USR_DBG_H
 3999              	.LVL306:
 278:Source/rme_benchmark.c **** 		    USR_DBG_H(RME_A7A_REG(Cur_addr+0x400*RME_WORD_BYTE+RME_KOM_VA_BASE));
 4000              		.loc 1 278 7 view .LVU1114
ARM GAS  C:\Users\even\AppData\Local\Temp\ccu0RqlP.s 			page 116


 4001              	.LBB779:
 4002              	.LBI779:
 368:Include/benchmark.h **** {
 4003              		.loc 3 368 7 view .LVU1115
 4004              	.LBB780:
 370:Include/benchmark.h **** 
 4005              		.loc 3 370 5 view .LVU1116
 372:Include/benchmark.h ****     {
 4006              		.loc 3 372 5 view .LVU1117
 372:Include/benchmark.h ****     {
 4007              		.loc 3 372 23 discriminator 1 view .LVU1118
 4008 02dc 001000E3 		movw	r1, #:lower16:.LC20
 4009              	.LBB781:
 4010              	.LBB782:
 222:Include/benchmark.h ****     return 0;
 4011              		.loc 3 222 5 is_stmt 0 discriminator 1 view .LVU1119
 4012 02e0 012AA0E3 		mov	r2, #4096
 4013 02e4 001040E3 		movt	r1, #:upper16:.LC20
 4014 02e8 00204EE3 		movt	r2, 57344
 4015 02ec FFC081E2 		add	ip, r1, #255
 4016              	.LVL307:
 4017              	.L289:
 222:Include/benchmark.h ****     return 0;
 4018              		.loc 3 222 5 discriminator 1 view .LVU1120
 4019              	.LBE782:
 4020              	.LBE781:
 374:Include/benchmark.h ****         {
 4021              		.loc 3 374 9 is_stmt 1 view .LVU1121
 374:Include/benchmark.h ****         {
 4022              		.loc 3 374 18 is_stmt 0 view .LVU1122
 4023 02f0 D100D1E0 		ldrsb	r0, [r1], #1
 4024              	.LVL308:
 374:Include/benchmark.h ****         {
 4025              		.loc 3 374 11 view .LVU1123
 4026 02f4 000050E3 		cmp	r0, #0
 4027 02f8 0500000A 		beq	.L287
 4028              	.L288:
 4029              	.LBB785:
 4030              	.LBB783:
 222:Include/benchmark.h ****     return 0;
 4031              		.loc 3 222 5 is_stmt 1 discriminator 1 view .LVU1124
 4032 02fc 2C3092E5 		ldr	r3, [r2, #44]
 4033 0300 080013E3 		tst	r3, #8
 4034 0304 FCFFFF0A 		beq	.L288
 222:Include/benchmark.h ****     return 0;
 4035              		.loc 3 222 5 discriminator 2 view .LVU1125
 4036              	.LBE783:
 4037              	.LBE785:
 372:Include/benchmark.h ****     {
 4038              		.loc 3 372 23 is_stmt 0 discriminator 1 view .LVU1126
 4039 0308 01005CE1 		cmp	ip, r1
 4040              	.LBB786:
 4041              	.LBB784:
 222:Include/benchmark.h ****     return 0;
 4042              		.loc 3 222 5 discriminator 2 view .LVU1127
 4043 030c 300082E5 		str	r0, [r2, #48]
 222:Include/benchmark.h ****     return 0;
ARM GAS  C:\Users\even\AppData\Local\Temp\ccu0RqlP.s 			page 117


 4044              		.loc 3 222 5 is_stmt 1 view .LVU1128
 223:Include/benchmark.h **** }
 4045              		.loc 3 223 5 view .LVU1129
 4046              	.LBE784:
 4047              	.LBE786:
 372:Include/benchmark.h ****     {
 4048              		.loc 3 372 33 discriminator 2 view .LVU1130
 4049              	.LVL309:
 372:Include/benchmark.h ****     {
 4050              		.loc 3 372 23 discriminator 1 view .LVU1131
 4051 0310 F6FFFF1A 		bne	.L289
 4052              	.LVL310:
 4053              	.L287:
 387:Include/benchmark.h **** }
 4054              		.loc 3 387 5 view .LVU1132
 387:Include/benchmark.h **** }
 4055              		.loc 3 387 5 is_stmt 0 view .LVU1133
 4056              	.LBE780:
 4057              	.LBE779:
 279:Source/rme_benchmark.c **** 		    USR_DBG_S(" @ ");
 4058              		.loc 1 279 7 is_stmt 1 view .LVU1134
 279:Source/rme_benchmark.c **** 		    USR_DBG_S(" @ ");
 4059              		.loc 1 279 17 is_stmt 0 view .LVU1135
 4060 0314 003097E5 		ldr	r3, [r7]
 4061 0318 813483E2 		add	r3, r3, #-2130706432
 4062 031c 013A83E2 		add	r3, r3, #4096
 279:Source/rme_benchmark.c **** 		    USR_DBG_S(" @ ");
 4063              		.loc 1 279 7 view .LVU1136
 4064 0320 000093E5 		ldr	r0, [r3]
 4065 0324 FEFFFFEB 		bl	USR_DBG_H
 4066              	.LVL311:
 280:Source/rme_benchmark.c **** 		    USR_DBG_H(Cur_addr+0x400*RME_WORD_BYTE+RME_KOM_VA_BASE);
 4067              		.loc 1 280 7 is_stmt 1 view .LVU1137
 4068              	.LBB787:
 4069              	.LBI787:
 368:Include/benchmark.h **** {
 4070              		.loc 3 368 7 view .LVU1138
 4071              	.LBB788:
 370:Include/benchmark.h **** 
 4072              		.loc 3 370 5 view .LVU1139
 372:Include/benchmark.h ****     {
 4073              		.loc 3 372 5 view .LVU1140
 372:Include/benchmark.h ****     {
 4074              		.loc 3 372 23 discriminator 1 view .LVU1141
 4075              	.LBE788:
 4076              	.LBE787:
 279:Source/rme_benchmark.c **** 		    USR_DBG_S(" @ ");
 4077              		.loc 1 279 7 is_stmt 0 view .LVU1142
 4078 0328 001000E3 		movw	r1, #:lower16:.LC18
 4079              	.LBB799:
 4080              	.LBB797:
 4081              	.LBB789:
 4082              	.LBB790:
 222:Include/benchmark.h ****     return 0;
 4083              		.loc 3 222 5 discriminator 1 view .LVU1143
 4084 032c 012AA0E3 		mov	r2, #4096
 4085              	.LBE790:
ARM GAS  C:\Users\even\AppData\Local\Temp\ccu0RqlP.s 			page 118


 4086              	.LBE789:
 4087              	.LBE797:
 4088              	.LBE799:
 279:Source/rme_benchmark.c **** 		    USR_DBG_S(" @ ");
 4089              		.loc 1 279 7 view .LVU1144
 4090 0330 001040E3 		movt	r1, #:upper16:.LC18
 4091              	.LBB800:
 4092              	.LBB798:
 4093              	.LBB794:
 4094              	.LBB791:
 222:Include/benchmark.h ****     return 0;
 4095              		.loc 3 222 5 discriminator 1 view .LVU1145
 4096 0334 00204EE3 		movt	r2, 57344
 4097              	.LVL312:
 4098              	.L292:
 222:Include/benchmark.h ****     return 0;
 4099              		.loc 3 222 5 discriminator 1 view .LVU1146
 4100              	.LBE791:
 4101              	.LBE794:
 374:Include/benchmark.h ****         {
 4102              		.loc 3 374 9 is_stmt 1 view .LVU1147
 374:Include/benchmark.h ****         {
 4103              		.loc 3 374 18 is_stmt 0 view .LVU1148
 4104 0338 D100D1E0 		ldrsb	r0, [r1], #1
 4105              	.LVL313:
 374:Include/benchmark.h ****         {
 4106              		.loc 3 374 11 view .LVU1149
 4107 033c 000050E3 		cmp	r0, #0
 4108 0340 0500000A 		beq	.L290
 4109              	.L291:
 4110              	.LBB795:
 4111              	.LBB792:
 222:Include/benchmark.h ****     return 0;
 4112              		.loc 3 222 5 is_stmt 1 discriminator 1 view .LVU1150
 4113 0344 2C3092E5 		ldr	r3, [r2, #44]
 4114 0348 080013E3 		tst	r3, #8
 4115 034c FCFFFF0A 		beq	.L291
 222:Include/benchmark.h ****     return 0;
 4116              		.loc 3 222 5 discriminator 2 view .LVU1151
 4117              	.LBE792:
 4118              	.LBE795:
 372:Include/benchmark.h ****     {
 4119              		.loc 3 372 23 is_stmt 0 discriminator 1 view .LVU1152
 4120 0350 040051E1 		cmp	r1, r4
 4121              	.LBB796:
 4122              	.LBB793:
 222:Include/benchmark.h ****     return 0;
 4123              		.loc 3 222 5 discriminator 2 view .LVU1153
 4124 0354 300082E5 		str	r0, [r2, #48]
 222:Include/benchmark.h ****     return 0;
 4125              		.loc 3 222 5 is_stmt 1 view .LVU1154
 223:Include/benchmark.h **** }
 4126              		.loc 3 223 5 view .LVU1155
 4127              	.LBE793:
 4128              	.LBE796:
 372:Include/benchmark.h ****     {
 4129              		.loc 3 372 33 discriminator 2 view .LVU1156
ARM GAS  C:\Users\even\AppData\Local\Temp\ccu0RqlP.s 			page 119


 4130              	.LVL314:
 372:Include/benchmark.h ****     {
 4131              		.loc 3 372 23 discriminator 1 view .LVU1157
 4132 0358 F6FFFF1A 		bne	.L292
 4133              	.LVL315:
 4134              	.L290:
 387:Include/benchmark.h **** }
 4135              		.loc 3 387 5 view .LVU1158
 387:Include/benchmark.h **** }
 4136              		.loc 3 387 5 is_stmt 0 view .LVU1159
 4137              	.LBE798:
 4138              	.LBE800:
 281:Source/rme_benchmark.c **** 
 4139              		.loc 1 281 7 is_stmt 1 view .LVU1160
 4140 035c 000097E5 		ldr	r0, [r7]
 4141 0360 810480E2 		add	r0, r0, #-2130706432
 4142 0364 010A80E2 		add	r0, r0, #4096
 4143 0368 FEFFFFEB 		bl	USR_DBG_H
 4144              	.LVL316:
 283:Source/rme_benchmark.c **** 		    USR_DBG_H(RME_A7A_REG(Cur_addr+0x600*RME_WORD_BYTE+RME_KOM_VA_BASE));
 4145              		.loc 1 283 7 view .LVU1161
 4146              	.LBB801:
 4147              	.LBI801:
 368:Include/benchmark.h **** {
 4148              		.loc 3 368 7 view .LVU1162
 4149              	.LBB802:
 370:Include/benchmark.h **** 
 4150              		.loc 3 370 5 view .LVU1163
 372:Include/benchmark.h ****     {
 4151              		.loc 3 372 5 view .LVU1164
 372:Include/benchmark.h ****     {
 4152              		.loc 3 372 23 discriminator 1 view .LVU1165
 4153 036c 001000E3 		movw	r1, #:lower16:.LC21
 4154              	.LBB803:
 4155              	.LBB804:
 222:Include/benchmark.h ****     return 0;
 4156              		.loc 3 222 5 is_stmt 0 discriminator 1 view .LVU1166
 4157 0370 012AA0E3 		mov	r2, #4096
 4158 0374 001040E3 		movt	r1, #:upper16:.LC21
 4159 0378 00204EE3 		movt	r2, 57344
 4160 037c FFC081E2 		add	ip, r1, #255
 4161              	.LVL317:
 4162              	.L295:
 222:Include/benchmark.h ****     return 0;
 4163              		.loc 3 222 5 discriminator 1 view .LVU1167
 4164              	.LBE804:
 4165              	.LBE803:
 374:Include/benchmark.h ****         {
 4166              		.loc 3 374 9 is_stmt 1 view .LVU1168
 374:Include/benchmark.h ****         {
 4167              		.loc 3 374 18 is_stmt 0 view .LVU1169
 4168 0380 D100D1E0 		ldrsb	r0, [r1], #1
 4169              	.LVL318:
 374:Include/benchmark.h ****         {
 4170              		.loc 3 374 11 view .LVU1170
 4171 0384 000050E3 		cmp	r0, #0
 4172 0388 0500000A 		beq	.L293
ARM GAS  C:\Users\even\AppData\Local\Temp\ccu0RqlP.s 			page 120


 4173              	.L294:
 4174              	.LBB807:
 4175              	.LBB805:
 222:Include/benchmark.h ****     return 0;
 4176              		.loc 3 222 5 is_stmt 1 discriminator 1 view .LVU1171
 4177 038c 2C3092E5 		ldr	r3, [r2, #44]
 4178 0390 080013E3 		tst	r3, #8
 4179 0394 FCFFFF0A 		beq	.L294
 222:Include/benchmark.h ****     return 0;
 4180              		.loc 3 222 5 discriminator 2 view .LVU1172
 4181              	.LBE805:
 4182              	.LBE807:
 372:Include/benchmark.h ****     {
 4183              		.loc 3 372 23 is_stmt 0 discriminator 1 view .LVU1173
 4184 0398 01005CE1 		cmp	ip, r1
 4185              	.LBB808:
 4186              	.LBB806:
 222:Include/benchmark.h ****     return 0;
 4187              		.loc 3 222 5 discriminator 2 view .LVU1174
 4188 039c 300082E5 		str	r0, [r2, #48]
 222:Include/benchmark.h ****     return 0;
 4189              		.loc 3 222 5 is_stmt 1 view .LVU1175
 223:Include/benchmark.h **** }
 4190              		.loc 3 223 5 view .LVU1176
 4191              	.LBE806:
 4192              	.LBE808:
 372:Include/benchmark.h ****     {
 4193              		.loc 3 372 33 discriminator 2 view .LVU1177
 4194              	.LVL319:
 372:Include/benchmark.h ****     {
 4195              		.loc 3 372 23 discriminator 1 view .LVU1178
 4196 03a0 F6FFFF1A 		bne	.L295
 4197              	.LVL320:
 4198              	.L293:
 387:Include/benchmark.h **** }
 4199              		.loc 3 387 5 view .LVU1179
 387:Include/benchmark.h **** }
 4200              		.loc 3 387 5 is_stmt 0 view .LVU1180
 4201              	.LBE802:
 4202              	.LBE801:
 284:Source/rme_benchmark.c **** 		    USR_DBG_S(" @ ");
 4203              		.loc 1 284 7 is_stmt 1 view .LVU1181
 284:Source/rme_benchmark.c **** 		    USR_DBG_S(" @ ");
 4204              		.loc 1 284 17 is_stmt 0 view .LVU1182
 4205 03a4 003097E5 		ldr	r3, [r7]
 4206 03a8 813483E2 		add	r3, r3, #-2130706432
 4207 03ac 063B83E2 		add	r3, r3, #6144
 284:Source/rme_benchmark.c **** 		    USR_DBG_S(" @ ");
 4208              		.loc 1 284 7 view .LVU1183
 4209 03b0 000093E5 		ldr	r0, [r3]
 4210 03b4 FEFFFFEB 		bl	USR_DBG_H
 4211              	.LVL321:
 285:Source/rme_benchmark.c **** 		    USR_DBG_H(Cur_addr+0x600*RME_WORD_BYTE+RME_KOM_VA_BASE);
 4212              		.loc 1 285 7 is_stmt 1 view .LVU1184
 4213              	.LBB809:
 4214              	.LBI809:
 368:Include/benchmark.h **** {
ARM GAS  C:\Users\even\AppData\Local\Temp\ccu0RqlP.s 			page 121


 4215              		.loc 3 368 7 view .LVU1185
 4216              	.LBB810:
 370:Include/benchmark.h **** 
 4217              		.loc 3 370 5 view .LVU1186
 372:Include/benchmark.h ****     {
 4218              		.loc 3 372 5 view .LVU1187
 372:Include/benchmark.h ****     {
 4219              		.loc 3 372 23 discriminator 1 view .LVU1188
 4220              	.LBB811:
 4221              	.LBB812:
 222:Include/benchmark.h ****     return 0;
 4222              		.loc 3 222 5 is_stmt 0 discriminator 1 view .LVU1189
 4223 03b8 012AA0E3 		mov	r2, #4096
 4224 03bc 00204EE3 		movt	r2, 57344
 4225              	.LVL322:
 4226              	.L298:
 222:Include/benchmark.h ****     return 0;
 4227              		.loc 3 222 5 discriminator 1 view .LVU1190
 4228              	.LBE812:
 4229              	.LBE811:
 374:Include/benchmark.h ****         {
 4230              		.loc 3 374 9 is_stmt 1 view .LVU1191
 374:Include/benchmark.h ****         {
 4231              		.loc 3 374 18 is_stmt 0 view .LVU1192
 4232 03c0 D110D8E0 		ldrsb	r1, [r8], #1
 4233              	.LVL323:
 374:Include/benchmark.h ****         {
 4234              		.loc 3 374 11 view .LVU1193
 4235 03c4 000051E3 		cmp	r1, #0
 4236 03c8 0500000A 		beq	.L296
 4237              	.L297:
 4238              	.LBB815:
 4239              	.LBB813:
 222:Include/benchmark.h ****     return 0;
 4240              		.loc 3 222 5 is_stmt 1 discriminator 1 view .LVU1194
 4241 03cc 2C3092E5 		ldr	r3, [r2, #44]
 4242 03d0 080013E3 		tst	r3, #8
 4243 03d4 FCFFFF0A 		beq	.L297
 222:Include/benchmark.h ****     return 0;
 4244              		.loc 3 222 5 discriminator 2 view .LVU1195
 4245              	.LBE813:
 4246              	.LBE815:
 372:Include/benchmark.h ****     {
 4247              		.loc 3 372 23 is_stmt 0 discriminator 1 view .LVU1196
 4248 03d8 040058E1 		cmp	r8, r4
 4249              	.LBB816:
 4250              	.LBB814:
 222:Include/benchmark.h ****     return 0;
 4251              		.loc 3 222 5 discriminator 2 view .LVU1197
 4252 03dc 301082E5 		str	r1, [r2, #48]
 222:Include/benchmark.h ****     return 0;
 4253              		.loc 3 222 5 is_stmt 1 view .LVU1198
 223:Include/benchmark.h **** }
 4254              		.loc 3 223 5 view .LVU1199
 4255              	.LBE814:
 4256              	.LBE816:
 372:Include/benchmark.h ****     {
ARM GAS  C:\Users\even\AppData\Local\Temp\ccu0RqlP.s 			page 122


 4257              		.loc 3 372 33 discriminator 2 view .LVU1200
 4258              	.LVL324:
 372:Include/benchmark.h ****     {
 4259              		.loc 3 372 23 discriminator 1 view .LVU1201
 4260 03e0 F6FFFF1A 		bne	.L298
 4261              	.LVL325:
 4262              	.L296:
 387:Include/benchmark.h **** }
 4263              		.loc 3 387 5 view .LVU1202
 387:Include/benchmark.h **** }
 4264              		.loc 3 387 5 is_stmt 0 view .LVU1203
 4265              	.LBE810:
 4266              	.LBE809:
 286:Source/rme_benchmark.c **** 
 4267              		.loc 1 286 7 is_stmt 1 view .LVU1204
 4268 03e4 000097E5 		ldr	r0, [r7]
 4269 03e8 810480E2 		add	r0, r0, #-2130706432
 4270 03ec 060B80E2 		add	r0, r0, #6144
 4271 03f0 FEFFFFEB 		bl	USR_DBG_H
 4272              	.LVL326:
 294:Source/rme_benchmark.c **** 		    				   RME_BOOT_BENCH_PGT);
 4273              		.loc 1 294 7 view .LVU1205
 4274              	.LBB817:
 4275              	.LBI817:
 282:Include/sys.h ****                       cid_t Cap_Prc,
 4276              		.loc 2 282 7 view .LVU1206
 4277              	.LBB818:
 287:Include/sys.h ****                    Cap_Cpt_Crt,
 4278              		.loc 2 287 5 view .LVU1207
 287:Include/sys.h ****                    Cap_Cpt_Crt,
 4279              		.loc 2 287 12 is_stmt 0 view .LVU1208
 4280 03f4 0020A0E3 		mov	r2, #0
 4281 03f8 1110A0E3 		mov	r1, #17
 4282 03fc 0930A0E3 		mov	r3, #9
 4283 0400 1508A0E3 		mov	r0, #1376256
 4284 0404 FEFFFFEB 		bl	RME_Svc
 4285              	.LVL327:
 4286 0408 001000E3 		movw	r1, #:lower16:.LC22
 4287              	.LBE818:
 4288              	.LBE817:
 4289              	.LBB820:
 4290              	.LBB821:
 4291              	.LBB822:
 4292              	.LBB823:
 222:Include/benchmark.h ****     return 0;
 4293              		.loc 3 222 5 discriminator 1 view .LVU1209
 4294 040c 012AA0E3 		mov	r2, #4096
 4295 0410 001040E3 		movt	r1, #:upper16:.LC22
 4296              	.LBE823:
 4297              	.LBE822:
 4298              	.LBE821:
 4299              	.LBE820:
 4300              	.LBB831:
 4301              	.LBB819:
 287:Include/sys.h ****                    Cap_Cpt_Crt,
 4302              		.loc 2 287 12 view .LVU1210
 4303 0414 0040A0E1 		mov	r4, r0
ARM GAS  C:\Users\even\AppData\Local\Temp\ccu0RqlP.s 			page 123


 291:Include/sys.h **** }
 4304              		.loc 2 291 28 is_stmt 1 view .LVU1211
 4305              	.LVL328:
 291:Include/sys.h **** }
 4306              		.loc 2 291 28 is_stmt 0 view .LVU1212
 4307              	.LBE819:
 4308              	.LBE831:
 296:Source/rme_benchmark.c **** 		    						USR_DBG_I(Retval);
 4309              		.loc 1 296 7 is_stmt 1 view .LVU1213
 4310              	.LBB832:
 4311              	.LBI820:
 368:Include/benchmark.h **** {
 4312              		.loc 3 368 7 view .LVU1214
 4313              	.LBB830:
 370:Include/benchmark.h **** 
 4314              		.loc 3 370 5 view .LVU1215
 372:Include/benchmark.h ****     {
 4315              		.loc 3 372 5 view .LVU1216
 372:Include/benchmark.h ****     {
 4316              		.loc 3 372 23 discriminator 1 view .LVU1217
 4317              	.LBB827:
 4318              	.LBB824:
 222:Include/benchmark.h ****     return 0;
 4319              		.loc 3 222 5 is_stmt 0 discriminator 1 view .LVU1218
 4320 0418 00204EE3 		movt	r2, 57344
 4321 041c FFC081E2 		add	ip, r1, #255
 4322              	.LVL329:
 4323              	.L301:
 222:Include/benchmark.h ****     return 0;
 4324              		.loc 3 222 5 discriminator 1 view .LVU1219
 4325              	.LBE824:
 4326              	.LBE827:
 374:Include/benchmark.h ****         {
 4327              		.loc 3 374 9 is_stmt 1 view .LVU1220
 374:Include/benchmark.h ****         {
 4328              		.loc 3 374 18 is_stmt 0 view .LVU1221
 4329 0420 D100D1E0 		ldrsb	r0, [r1], #1
 4330              	.LVL330:
 374:Include/benchmark.h ****         {
 4331              		.loc 3 374 11 view .LVU1222
 4332 0424 000050E3 		cmp	r0, #0
 4333 0428 0500000A 		beq	.L299
 4334              	.L300:
 4335              	.LBB828:
 4336              	.LBB825:
 222:Include/benchmark.h ****     return 0;
 4337              		.loc 3 222 5 is_stmt 1 discriminator 1 view .LVU1223
 4338 042c 2C3092E5 		ldr	r3, [r2, #44]
 4339 0430 080013E3 		tst	r3, #8
 4340 0434 FCFFFF0A 		beq	.L300
 222:Include/benchmark.h ****     return 0;
 4341              		.loc 3 222 5 discriminator 2 view .LVU1224
 4342              	.LBE825:
 4343              	.LBE828:
 372:Include/benchmark.h ****     {
 4344              		.loc 3 372 23 is_stmt 0 discriminator 1 view .LVU1225
 4345 0438 01005CE1 		cmp	ip, r1
ARM GAS  C:\Users\even\AppData\Local\Temp\ccu0RqlP.s 			page 124


 4346              	.LBB829:
 4347              	.LBB826:
 222:Include/benchmark.h ****     return 0;
 4348              		.loc 3 222 5 discriminator 2 view .LVU1226
 4349 043c 300082E5 		str	r0, [r2, #48]
 222:Include/benchmark.h ****     return 0;
 4350              		.loc 3 222 5 is_stmt 1 view .LVU1227
 223:Include/benchmark.h **** }
 4351              		.loc 3 223 5 view .LVU1228
 4352              	.LBE826:
 4353              	.LBE829:
 372:Include/benchmark.h ****     {
 4354              		.loc 3 372 33 discriminator 2 view .LVU1229
 4355              	.LVL331:
 372:Include/benchmark.h ****     {
 4356              		.loc 3 372 23 discriminator 1 view .LVU1230
 4357 0440 F6FFFF1A 		bne	.L301
 4358              	.LVL332:
 4359              	.L299:
 387:Include/benchmark.h **** }
 4360              		.loc 3 387 5 view .LVU1231
 387:Include/benchmark.h **** }
 4361              		.loc 3 387 5 is_stmt 0 view .LVU1232
 4362              	.LBE830:
 4363              	.LBE832:
 297:Source/rme_benchmark.c **** 
 4364              		.loc 1 297 13 is_stmt 1 view .LVU1233
 4365 0444 0400A0E1 		mov	r0, r4
 4366 0448 FEFFFFEB 		bl	USR_DBG_I
 4367              	.LVL333:
 306:Source/rme_benchmark.c **** 		    						USR_DBG_S(" \r\nCur_addr= ");
 4368              		.loc 1 306 13 view .LVU1234
 4369              	.LBB833:
 4370              	.LBB834:
 4371              	.LBB835:
 4372              	.LBB836:
 222:Include/benchmark.h ****     return 0;
 4373              		.loc 3 222 5 is_stmt 0 discriminator 1 view .LVU1235
 4374 044c 012AA0E3 		mov	r2, #4096
 4375              	.LBE836:
 4376              	.LBE835:
 4377              	.LBE834:
 4378              	.LBE833:
 306:Source/rme_benchmark.c **** 		    						USR_DBG_S(" \r\nCur_addr= ");
 4379              		.loc 1 306 21 view .LVU1236
 4380 0450 823CA0E3 		mov	r3, #33280
 4381              	.LBB845:
 4382              	.LBB843:
 4383              	.LBB840:
 4384              	.LBB837:
 222:Include/benchmark.h ****     return 0;
 4385              		.loc 3 222 5 discriminator 1 view .LVU1237
 4386 0454 00204EE3 		movt	r2, 57344
 4387              	.LBE837:
 4388              	.LBE840:
 4389              	.LBE843:
 4390              	.LBE845:
ARM GAS  C:\Users\even\AppData\Local\Temp\ccu0RqlP.s 			page 125


 306:Source/rme_benchmark.c **** 		    						USR_DBG_S(" \r\nCur_addr= ");
 4391              		.loc 1 306 21 view .LVU1238
 4392 0458 003087E5 		str	r3, [r7]
 307:Source/rme_benchmark.c **** 		    							    USR_DBG_H(Cur_addr);
 4393              		.loc 1 307 13 is_stmt 1 view .LVU1239
 4394              	.LVL334:
 4395              	.LBB846:
 4396              	.LBI833:
 368:Include/benchmark.h **** {
 4397              		.loc 3 368 7 view .LVU1240
 4398              	.LBB844:
 370:Include/benchmark.h **** 
 4399              		.loc 3 370 5 view .LVU1241
 372:Include/benchmark.h ****     {
 4400              		.loc 3 372 5 view .LVU1242
 372:Include/benchmark.h ****     {
 4401              		.loc 3 372 23 discriminator 1 view .LVU1243
 4402              	.L304:
 374:Include/benchmark.h ****         {
 4403              		.loc 3 374 9 view .LVU1244
 374:Include/benchmark.h ****         {
 4404              		.loc 3 374 18 is_stmt 0 view .LVU1245
 4405 045c D110D5E0 		ldrsb	r1, [r5], #1
 4406              	.LVL335:
 374:Include/benchmark.h ****         {
 4407              		.loc 3 374 11 view .LVU1246
 4408 0460 000051E3 		cmp	r1, #0
 4409 0464 0500000A 		beq	.L302
 4410              	.L303:
 4411              	.LBB841:
 4412              	.LBB838:
 222:Include/benchmark.h ****     return 0;
 4413              		.loc 3 222 5 is_stmt 1 discriminator 1 view .LVU1247
 4414 0468 2C3092E5 		ldr	r3, [r2, #44]
 4415 046c 080013E3 		tst	r3, #8
 4416 0470 FCFFFF0A 		beq	.L303
 222:Include/benchmark.h ****     return 0;
 4417              		.loc 3 222 5 discriminator 2 view .LVU1248
 4418              	.LBE838:
 4419              	.LBE841:
 372:Include/benchmark.h ****     {
 4420              		.loc 3 372 23 is_stmt 0 discriminator 1 view .LVU1249
 4421 0474 060055E1 		cmp	r5, r6
 4422              	.LBB842:
 4423              	.LBB839:
 222:Include/benchmark.h ****     return 0;
 4424              		.loc 3 222 5 discriminator 2 view .LVU1250
 4425 0478 301082E5 		str	r1, [r2, #48]
 222:Include/benchmark.h ****     return 0;
 4426              		.loc 3 222 5 is_stmt 1 view .LVU1251
 223:Include/benchmark.h **** }
 4427              		.loc 3 223 5 view .LVU1252
 4428              	.LBE839:
 4429              	.LBE842:
 372:Include/benchmark.h ****     {
 4430              		.loc 3 372 33 discriminator 2 view .LVU1253
 4431              	.LVL336:
ARM GAS  C:\Users\even\AppData\Local\Temp\ccu0RqlP.s 			page 126


 372:Include/benchmark.h ****     {
 4432              		.loc 3 372 23 discriminator 1 view .LVU1254
 4433 047c F6FFFF1A 		bne	.L304
 4434              	.LVL337:
 4435              	.L302:
 387:Include/benchmark.h **** }
 4436              		.loc 3 387 5 view .LVU1255
 387:Include/benchmark.h **** }
 4437              		.loc 3 387 5 is_stmt 0 view .LVU1256
 4438              	.LBE844:
 4439              	.LBE846:
 308:Source/rme_benchmark.c **** 		 RME_Thd_Create(RME_BOOT_BENCH_PRC,RME_BOOT_BENCH_SEN_THD,RME_TID_3,4,(ptr_t)RME_Diff_Prc_Thd_Sig
 4440              		.loc 1 308 18 is_stmt 1 view .LVU1257
 4441 0480 000097E5 		ldr	r0, [r7]
 4442 0484 FEFFFFEB 		bl	USR_DBG_H
 4443              	.LVL338:
 309:Source/rme_benchmark.c **** 	  				   Cur_addr,RME_BOOT_SIG_BENCH,RME_THD_INF_TIME,(ptr_t)&RME_Stack2[2000]);
 4444              		.loc 1 309 4 view .LVU1258
 4445 0488 94309FE5 		ldr	r3, .L397+4
 4446 048c 001000E3 		movw	r1, #:lower16:RME_Diff_Prc_Thd_Sig_Test_Thd_send
 4447 0490 000097E5 		ldr	r0, [r7]
 4448 0494 0621E0E3 		mvn	r2, #-2147483647
 4449 0498 001040E3 		movt	r1, #:upper16:RME_Diff_Prc_Thd_Sig_Test_Thd_send
 4450 049c 0C208DE5 		str	r2, [sp, #12]
 4451 04a0 10308DE5 		str	r3, [sp, #16]
 4452 04a4 0D30A0E3 		mov	r3, #13
 4453 04a8 0320A0E3 		mov	r2, #3
 4454 04ac 08308DE5 		str	r3, [sp, #8]
 4455 04b0 04008DE5 		str	r0, [sp, #4]
 4456 04b4 0430A0E3 		mov	r3, #4
 4457 04b8 00108DE5 		str	r1, [sp]
 4458 04bc 1100A0E3 		mov	r0, #17
 4459 04c0 0E10A0E3 		mov	r1, #14
 4460 04c4 FEFFFFEB 		bl	RME_Thd_Create
 4461              	.LVL339:
 311:Source/rme_benchmark.c **** 	  	  	  	  	 USR_DBG_I(Retval);
 4462              		.loc 1 311 15 view .LVU1259
 4463              	.LBB847:
 4464              	.LBI847:
 368:Include/benchmark.h **** {
 4465              		.loc 3 368 7 view .LVU1260
 4466              	.LBB848:
 370:Include/benchmark.h **** 
 4467              		.loc 3 370 5 view .LVU1261
 372:Include/benchmark.h ****     {
 4468              		.loc 3 372 5 view .LVU1262
 372:Include/benchmark.h ****     {
 4469              		.loc 3 372 23 discriminator 1 view .LVU1263
 4470 04c8 001000E3 		movw	r1, #:lower16:.LC23
 4471              	.LBB849:
 4472              	.LBB850:
 222:Include/benchmark.h ****     return 0;
 4473              		.loc 3 222 5 is_stmt 0 discriminator 1 view .LVU1264
 4474 04cc 012AA0E3 		mov	r2, #4096
 4475 04d0 001040E3 		movt	r1, #:upper16:.LC23
 4476 04d4 00204EE3 		movt	r2, 57344
 4477 04d8 FFC081E2 		add	ip, r1, #255
ARM GAS  C:\Users\even\AppData\Local\Temp\ccu0RqlP.s 			page 127


 4478              	.LVL340:
 4479              	.L307:
 222:Include/benchmark.h ****     return 0;
 4480              		.loc 3 222 5 discriminator 1 view .LVU1265
 4481              	.LBE850:
 4482              	.LBE849:
 374:Include/benchmark.h ****         {
 4483              		.loc 3 374 9 is_stmt 1 view .LVU1266
 374:Include/benchmark.h ****         {
 4484              		.loc 3 374 18 is_stmt 0 view .LVU1267
 4485 04dc D100D1E0 		ldrsb	r0, [r1], #1
 4486              	.LVL341:
 374:Include/benchmark.h ****         {
 4487              		.loc 3 374 11 view .LVU1268
 4488 04e0 000050E3 		cmp	r0, #0
 4489 04e4 0500000A 		beq	.L305
 4490              	.L306:
 4491              	.LBB853:
 4492              	.LBB851:
 222:Include/benchmark.h ****     return 0;
 4493              		.loc 3 222 5 is_stmt 1 discriminator 1 view .LVU1269
 4494 04e8 2C3092E5 		ldr	r3, [r2, #44]
 4495 04ec 080013E3 		tst	r3, #8
 4496 04f0 FCFFFF0A 		beq	.L306
 222:Include/benchmark.h ****     return 0;
 4497              		.loc 3 222 5 discriminator 2 view .LVU1270
 4498              	.LBE851:
 4499              	.LBE853:
 372:Include/benchmark.h ****     {
 4500              		.loc 3 372 23 is_stmt 0 discriminator 1 view .LVU1271
 4501 04f4 01005CE1 		cmp	ip, r1
 4502              	.LBB854:
 4503              	.LBB852:
 222:Include/benchmark.h ****     return 0;
 4504              		.loc 3 222 5 discriminator 2 view .LVU1272
 4505 04f8 300082E5 		str	r0, [r2, #48]
 222:Include/benchmark.h ****     return 0;
 4506              		.loc 3 222 5 is_stmt 1 view .LVU1273
 223:Include/benchmark.h **** }
 4507              		.loc 3 223 5 view .LVU1274
 4508              	.LBE852:
 4509              	.LBE854:
 372:Include/benchmark.h ****     {
 4510              		.loc 3 372 33 discriminator 2 view .LVU1275
 4511              	.LVL342:
 372:Include/benchmark.h ****     {
 4512              		.loc 3 372 23 discriminator 1 view .LVU1276
 4513 04fc F6FFFF1A 		bne	.L307
 4514              	.LVL343:
 4515              	.L305:
 387:Include/benchmark.h **** }
 4516              		.loc 3 387 5 view .LVU1277
 387:Include/benchmark.h **** }
 4517              		.loc 3 387 5 is_stmt 0 view .LVU1278
 4518              	.LBE848:
 4519              	.LBE847:
 312:Source/rme_benchmark.c **** 
ARM GAS  C:\Users\even\AppData\Local\Temp\ccu0RqlP.s 			page 128


 4520              		.loc 1 312 15 is_stmt 1 view .LVU1279
 4521 0500 0400A0E1 		mov	r0, r4
 4522 0504 FEFFFFEB 		bl	USR_DBG_I
 4523              	.LVL344:
 315:Source/rme_benchmark.c **** 	  	  	  	  	 while(1);
 4524              		.loc 1 315 12 view .LVU1280
 4525              	.LBB855:
 4526              	.LBI855:
 167:Include/sys.h ****                   ptr_t Is_Yield)
 4527              		.loc 2 167 7 view .LVU1281
 4528              	.LBB856:
 170:Include/sys.h ****                    0U,
 4529              		.loc 2 170 5 view .LVU1282
 170:Include/sys.h ****                    0U,
 4530              		.loc 2 170 12 is_stmt 0 view .LVU1283
 4531 0508 0030A0E3 		mov	r3, #0
 4532 050c 0E10A0E3 		mov	r1, #14
 4533 0510 0320A0E1 		mov	r2, r3
 4534 0514 0908A0E3 		mov	r0, #589824
 4535 0518 FEFFFFEB 		bl	RME_Svc
 4536              	.LVL345:
 174:Include/sys.h **** }
 4537              		.loc 2 174 23 is_stmt 1 view .LVU1284
 4538              	.L308:
 174:Include/sys.h **** }
 4539              		.loc 2 174 23 is_stmt 0 view .LVU1285
 4540              	.LBE856:
 4541              	.LBE855:
 316:Source/rme_benchmark.c **** 
 4542              		.loc 1 316 15 is_stmt 1 view .LVU1286
 316:Source/rme_benchmark.c **** 
 4543              		.loc 1 316 20 view .LVU1287
 316:Source/rme_benchmark.c **** 
 4544              		.loc 1 316 15 view .LVU1288
 316:Source/rme_benchmark.c **** 
 4545              		.loc 1 316 20 view .LVU1289
 4546 051c FEFFFFEA 		b	.L308
 4547              	.L398:
 4548              		.align	2
 4549              	.L397:
 4550 0520 401F0000 		.word	RME_Stack3+8000
 4551 0524 401F0000 		.word	RME_Stack2+8000
 4552              		.cfi_endproc
 4553              	.LFE32:
 4555              		.section	.rodata.RME_Same_Prc_Thd_Switch_Test.str1.4,"aMS",%progbits,1
 4556              		.align	2
 4557              	.LC24:
 4558 0000 0D0A2073 		.ascii	"\015\012 swt 10000 times time avg = \000"
 4558      77742031 
 4558      30303030 
 4558      2074696D 
 4558      65732074 
 4559 001f 00       		.align	2
 4560              	.LC25:
 4561 0020 0D0A7465 		.ascii	"\015\012test done \000"
 4561      73742064 
 4561      6F6E6520 
ARM GAS  C:\Users\even\AppData\Local\Temp\ccu0RqlP.s 			page 129


 4561      00
 4562              		.section	.text.RME_Same_Prc_Thd_Switch_Test,"ax",%progbits
 4563              		.align	2
 4564              		.global	RME_Same_Prc_Thd_Switch_Test
 4565              		.syntax unified
 4566              		.arm
 4568              	RME_Same_Prc_Thd_Switch_Test:
 4569              	.LFB33:
 327:Source/rme_benchmark.c **** 	/*USR_DBG_S("\r\n/****************");
 4570              		.loc 1 327 1 view -0
 4571              		.cfi_startproc
 4572              		@ args = 0, pretend = 0, frame = 0
 4573              		@ frame_needed = 0, uses_anonymous_args = 0
 331:Source/rme_benchmark.c ****     cnt_t Count;
 4574              		.loc 1 331 5 view .LVU1291
 332:Source/rme_benchmark.c ****     ptr_t Stack_Addr;
 4575              		.loc 1 332 5 view .LVU1292
 333:Source/rme_benchmark.c ****     ptr_t Temp;
 4576              		.loc 1 333 5 view .LVU1293
 334:Source/rme_benchmark.c ****     /* Initialize the thread's stack before entering it */
 4577              		.loc 1 334 5 view .LVU1294
 336:Source/rme_benchmark.c ****                                (ptr_t)RME_Thd_Stub,
 4578              		.loc 1 336 5 view .LVU1295
 4579              	.LVL346:
 351:Source/rme_benchmark.c ****                        RME_BOOT_INIT_PRC,RME_THD_PRIO_MAX,RME_BOOT_BENCH_KOM_FRONTIER,0);
 4580              		.loc 1 351 5 view .LVU1296
 4581              	.LBB857:
 4582              	.LBI857:
  22:Include/sys.h ****                       cid_t Cap_Kom,
 4583              		.loc 2 22 7 view .LVU1297
 4584              	.LBB858:
  30:Include/sys.h ****                    Cap_Cpt,
 4585              		.loc 2 30 5 view .LVU1298
  30:Include/sys.h ****                    Cap_Cpt,
 4586              		.loc 2 30 12 is_stmt 0 view .LVU1299
 4587 0000 1F20A0E3 		mov	r2, #31
 4588 0004 0810A0E3 		mov	r1, #8
 4589              	.LBE858:
 4590              	.LBE857:
 327:Source/rme_benchmark.c **** 	/*USR_DBG_S("\r\n/****************");
 4591              		.loc 1 327 1 view .LVU1300
 4592 0008 70402DE9 		push	{r4, r5, r6, lr}
 4593              		.cfi_def_cfa_offset 16
 4594              		.cfi_offset 4, -16
 4595              		.cfi_offset 5, -12
 4596              		.cfi_offset 6, -8
 4597              		.cfi_offset 14, -4
 4598              	.LBB861:
 4599              	.LBB859:
  30:Include/sys.h ****                    Cap_Cpt,
 4600              		.loc 2 30 12 view .LVU1301
 4601 000c 0239A0E3 		mov	r3, #32768
 4602 0010 022040E3 		movt	r2, 2
 4603 0014 051040E3 		movt	r1, 5
 4604 0018 1908A0E3 		mov	r0, #1638400
 4605              	.LBE859:
 4606              	.LBE861:
ARM GAS  C:\Users\even\AppData\Local\Temp\ccu0RqlP.s 			page 130


 400:Source/rme_benchmark.c ****     for(Count=0;Count<10000;Count++)
 4607              		.loc 1 400 10 discriminator 1 view .LVU1302
 4608 001c 005000E3 		movw	r5, #:lower16:start
 4609              	.LBB862:
 4610              	.LBB860:
  30:Include/sys.h ****                    Cap_Cpt,
 4611              		.loc 2 30 12 view .LVU1303
 4612 0020 FEFFFFEB 		bl	RME_Svc
 4613              	.LVL347:
  34:Include/sys.h **** }
 4614              		.loc 2 34 26 is_stmt 1 view .LVU1304
  34:Include/sys.h **** }
 4615              		.loc 2 34 26 is_stmt 0 view .LVU1305
 4616              	.LBE860:
 4617              	.LBE862:
 361:Source/rme_benchmark.c ****                               RME_TID_2,0,RME_BOOT_HYPER_KOM_VADDR);
 4618              		.loc 1 361 5 is_stmt 1 view .LVU1306
 4619              	.LBB863:
 4620              	.LBI863:
 136:Include/sys.h ****                          cid_t Cap_Thd_Sched,
 4621              		.loc 2 136 7 view .LVU1307
 4622              	.LBB864:
 143:Include/sys.h ****                    Cap_Thd,
 4623              		.loc 2 143 5 view .LVU1308
 143:Include/sys.h ****                    Cap_Thd,
 4624              		.loc 2 143 12 is_stmt 0 view .LVU1309
 4625 0024 0800A0E3 		mov	r0, #8
 4626 0028 0030A0E3 		mov	r3, #0
 4627 002c 0228A0E3 		mov	r2, #131072
 4628 0030 0E19A0E3 		mov	r1, #229376
 4629 0034 1B0040E3 		movt	r0, 27
 4630              	.LBE864:
 4631              	.LBE863:
 400:Source/rme_benchmark.c ****     for(Count=0;Count<10000;Count++)
 4632              		.loc 1 400 10 discriminator 1 view .LVU1310
 4633 0038 104702E3 		movw	r4, #10000
 4634              	.LBB866:
 4635              	.LBB865:
 143:Include/sys.h ****                    Cap_Thd,
 4636              		.loc 2 143 12 view .LVU1311
 4637 003c FEFFFFEB 		bl	RME_Svc
 4638              	.LVL348:
 147:Include/sys.h **** }
 4639              		.loc 2 147 26 is_stmt 1 view .LVU1312
 147:Include/sys.h **** }
 4640              		.loc 2 147 26 is_stmt 0 view .LVU1313
 4641              	.LBE865:
 4642              	.LBE866:
 365:Source/rme_benchmark.c ****     /* Set the execution information */
 4643              		.loc 1 365 5 is_stmt 1 view .LVU1314
 371:Source/rme_benchmark.c ****     //RME_Stack[2000]=1234;
 4644              		.loc 1 371 5 view .LVU1315
 4645              	.LBB867:
 4646              	.LBI867:
  49:Include/sys.h ****                            ptr_t Entry,
 4647              		.loc 2 49 7 view .LVU1316
 4648              	.LBB868:
ARM GAS  C:\Users\even\AppData\Local\Temp\ccu0RqlP.s 			page 131


  54:Include/sys.h ****                    Cap_Thd,
 4649              		.loc 2 54 5 view .LVU1317
  54:Include/sys.h ****                    Cap_Thd,
 4650              		.loc 2 54 12 is_stmt 0 view .LVU1318
 4651 0040 001000E3 		movw	r1, #:lower16:RME_Same_Prc_Thd_Switch_Test_Thd
 4652 0044 0800A0E3 		mov	r0, #8
 4653 0048 10219FE5 		ldr	r2, .L420
 4654              	.LVL349:
  54:Include/sys.h ****                    Cap_Thd,
 4655              		.loc 2 54 12 view .LVU1319
 4656 004c 0230A0E3 		mov	r3, #2
 4657 0050 001040E3 		movt	r1, #:upper16:RME_Same_Prc_Thd_Switch_Test_Thd
 4658 0054 060040E3 		movt	r0, 6
 4659 0058 FEFFFFEB 		bl	RME_Svc
 4660              	.LVL350:
  58:Include/sys.h **** }
 4661              		.loc 2 58 33 is_stmt 1 view .LVU1320
  58:Include/sys.h **** }
 4662              		.loc 2 58 33 is_stmt 0 view .LVU1321
 4663              	.LBE868:
 4664              	.LBE867:
 381:Source/rme_benchmark.c **** 
 4665              		.loc 1 381 5 is_stmt 1 view .LVU1322
 4666              	.LBB869:
 4667              	.LBI869:
  88:Include/sys.h ****                         cid_t Cap_Thd_Src,
 4668              		.loc 2 88 7 view .LVU1323
 4669              	.LBB870:
  92:Include/sys.h ****                    0U,
 4670              		.loc 2 92 5 view .LVU1324
  92:Include/sys.h ****                    0U,
 4671              		.loc 2 92 12 is_stmt 0 view .LVU1325
 4672 005c 0631E0E3 		mvn	r3, #-2147483647
 4673 0060 0320A0E3 		mov	r2, #3
 4674 0064 0810A0E3 		mov	r1, #8
 4675 0068 0207A0E3 		mov	r0, #524288
 4676 006c FEFFFFEB 		bl	RME_Svc
 4677              	.LVL351:
  96:Include/sys.h **** }
 4678              		.loc 2 96 25 is_stmt 1 view .LVU1326
  96:Include/sys.h **** }
 4679              		.loc 2 96 25 is_stmt 0 view .LVU1327
 4680              	.LBE870:
 4681              	.LBE869:
 387:Source/rme_benchmark.c ****     /*USR_DBG_S("\r\nTry to switch to that thread - should fail  retval= ");
 4682              		.loc 1 387 5 is_stmt 1 view .LVU1328
 4683              	.LBB871:
 4684              	.LBI871:
 167:Include/sys.h ****                   ptr_t Is_Yield)
 4685              		.loc 2 167 7 view .LVU1329
 4686              	.LBB872:
 170:Include/sys.h ****                    0U,
 4687              		.loc 2 170 5 view .LVU1330
 170:Include/sys.h ****                    0U,
 4688              		.loc 2 170 12 is_stmt 0 view .LVU1331
 4689 0070 0030A0E3 		mov	r3, #0
 4690 0074 0810A0E3 		mov	r1, #8
ARM GAS  C:\Users\even\AppData\Local\Temp\ccu0RqlP.s 			page 132


 4691 0078 0320A0E1 		mov	r2, r3
 4692 007c 0908A0E3 		mov	r0, #589824
 4693 0080 FEFFFFEB 		bl	RME_Svc
 4694              	.LVL352:
 174:Include/sys.h **** }
 4695              		.loc 2 174 23 is_stmt 1 view .LVU1332
 174:Include/sys.h **** }
 4696              		.loc 2 174 23 is_stmt 0 view .LVU1333
 4697              	.LBE872:
 4698              	.LBE871:
 400:Source/rme_benchmark.c ****     for(Count=0;Count<10000;Count++)
 4699              		.loc 1 400 5 is_stmt 1 view .LVU1334
 4700              	.LBB873:
 4701              	.LBI873:
 391:Include/benchmark.h **** {
 4702              		.loc 3 391 7 view .LVU1335
 4703              	.LBB874:
 393:Include/benchmark.h **** 	temp=RME_A7A_REG(&RME_A7A_GTWD_GTCR0);
 4704              		.loc 3 393 2 view .LVU1336
 394:Include/benchmark.h **** 	return temp;
 4705              		.loc 3 394 2 view .LVU1337
 394:Include/benchmark.h **** 	return temp;
 4706              		.loc 3 394 6 is_stmt 0 view .LVU1338
 4707 0084 0030A0E3 		mov	r3, #0
 4708              	.LBE874:
 4709              	.LBE873:
 400:Source/rme_benchmark.c ****     for(Count=0;Count<10000;Count++)
 4710              		.loc 1 400 10 discriminator 1 view .LVU1339
 4711 0088 005040E3 		movt	r5, #:upper16:start
 4712              	.LBB876:
 4713              	.LBB875:
 394:Include/benchmark.h **** 	return temp;
 4714              		.loc 3 394 6 view .LVU1340
 4715 008c F0384FE3 		movt	r3, 63728
 4716 0090 003293E5 		ldr	r3, [r3, #512]
 4717              	.LVL353:
 395:Include/benchmark.h ****     /*USR_DBG_S("\r\n time=");
 4718              		.loc 3 395 2 is_stmt 1 view .LVU1341
 395:Include/benchmark.h ****     /*USR_DBG_S("\r\n time=");
 4719              		.loc 3 395 2 is_stmt 0 view .LVU1342
 4720              	.LBE875:
 4721              	.LBE876:
 400:Source/rme_benchmark.c ****     for(Count=0;Count<10000;Count++)
 4722              		.loc 1 400 10 discriminator 1 view .LVU1343
 4723 0094 003085E5 		str	r3, [r5]
 401:Source/rme_benchmark.c ****     {
 4724              		.loc 1 401 5 is_stmt 1 view .LVU1344
 4725              	.LVL354:
 401:Source/rme_benchmark.c ****     {
 4726              		.loc 1 401 22 discriminator 1 view .LVU1345
 4727              	.L400:
 405:Source/rme_benchmark.c ****     	    /*end=get_time();
 4728              		.loc 1 405 10 view .LVU1346
 4729              	.LBB877:
 4730              	.LBI877:
 167:Include/sys.h ****                   ptr_t Is_Yield)
 4731              		.loc 2 167 7 view .LVU1347
ARM GAS  C:\Users\even\AppData\Local\Temp\ccu0RqlP.s 			page 133


 4732              	.LBB878:
 170:Include/sys.h ****                    0U,
 4733              		.loc 2 170 5 view .LVU1348
 170:Include/sys.h ****                    0U,
 4734              		.loc 2 170 12 is_stmt 0 view .LVU1349
 4735 0098 0030A0E3 		mov	r3, #0
 4736 009c 0810A0E3 		mov	r1, #8
 4737 00a0 0320A0E1 		mov	r2, r3
 4738 00a4 0908A0E3 		mov	r0, #589824
 4739 00a8 FEFFFFEB 		bl	RME_Svc
 4740              	.LVL355:
 174:Include/sys.h **** }
 4741              		.loc 2 174 23 is_stmt 1 view .LVU1350
 174:Include/sys.h **** }
 4742              		.loc 2 174 23 is_stmt 0 view .LVU1351
 4743              	.LBE878:
 4744              	.LBE877:
 401:Source/rme_benchmark.c ****     {
 4745              		.loc 1 401 34 is_stmt 1 discriminator 3 view .LVU1352
 401:Source/rme_benchmark.c ****     {
 4746              		.loc 1 401 22 discriminator 1 view .LVU1353
 4747 00ac 014054E2 		subs	r4, r4, #1
 4748 00b0 F8FFFF1A 		bne	.L400
 412:Source/rme_benchmark.c ****     USR_DBG_S("\r\n swt 10000 times time avg = ");
 4749              		.loc 1 412 5 view .LVU1354
 4750              	.LBB879:
 4751              	.LBI879:
 391:Include/benchmark.h **** {
 4752              		.loc 3 391 7 view .LVU1355
 4753              	.LBB880:
 393:Include/benchmark.h **** 	temp=RME_A7A_REG(&RME_A7A_GTWD_GTCR0);
 4754              		.loc 3 393 2 view .LVU1356
 394:Include/benchmark.h **** 	return temp;
 4755              		.loc 3 394 2 view .LVU1357
 394:Include/benchmark.h **** 	return temp;
 4756              		.loc 3 394 6 is_stmt 0 view .LVU1358
 4757 00b4 0030A0E3 		mov	r3, #0
 4758 00b8 001000E3 		movw	r1, #:lower16:.LC24
 4759 00bc F0384FE3 		movt	r3, 63728
 4760 00c0 001040E3 		movt	r1, #:upper16:.LC24
 4761 00c4 003293E5 		ldr	r3, [r3, #512]
 4762              	.LVL356:
 395:Include/benchmark.h ****     /*USR_DBG_S("\r\n time=");
 4763              		.loc 3 395 2 is_stmt 1 view .LVU1359
 395:Include/benchmark.h ****     /*USR_DBG_S("\r\n time=");
 4764              		.loc 3 395 2 is_stmt 0 view .LVU1360
 4765              	.LBE880:
 4766              	.LBE879:
 4767              	.LBB881:
 4768              	.LBB882:
 4769              	.LBB883:
 4770              	.LBB884:
 222:Include/benchmark.h ****     return 0;
 4771              		.loc 3 222 5 discriminator 1 view .LVU1361
 4772 00c8 012AA0E3 		mov	r2, #4096
 4773              	.LBE884:
 4774              	.LBE883:
ARM GAS  C:\Users\even\AppData\Local\Temp\ccu0RqlP.s 			page 134


 4775              	.LBE882:
 4776              	.LBE881:
 412:Source/rme_benchmark.c ****     USR_DBG_S("\r\n swt 10000 times time avg = ");
 4777              		.loc 1 412 8 discriminator 1 view .LVU1362
 4778 00cc 00E000E3 		movw	lr, #:lower16:end
 4779              	.LBB893:
 4780              	.LBB891:
 4781              	.LBB888:
 4782              	.LBB885:
 222:Include/benchmark.h ****     return 0;
 4783              		.loc 3 222 5 discriminator 1 view .LVU1363
 4784 00d0 00204EE3 		movt	r2, 57344
 4785 00d4 FFC081E2 		add	ip, r1, #255
 4786              	.LBE885:
 4787              	.LBE888:
 4788              	.LBE891:
 4789              	.LBE893:
 412:Source/rme_benchmark.c ****     USR_DBG_S("\r\n swt 10000 times time avg = ");
 4790              		.loc 1 412 8 discriminator 1 view .LVU1364
 4791 00d8 00E040E3 		movt	lr, #:upper16:end
 4792 00dc 00308EE5 		str	r3, [lr]
 413:Source/rme_benchmark.c ****     USR_DBG_I((end-start)/10000);
 4793              		.loc 1 413 5 is_stmt 1 view .LVU1365
 4794              	.LVL357:
 4795              	.LBB894:
 4796              	.LBI881:
 368:Include/benchmark.h **** {
 4797              		.loc 3 368 7 view .LVU1366
 4798              	.LBB892:
 370:Include/benchmark.h **** 
 4799              		.loc 3 370 5 view .LVU1367
 372:Include/benchmark.h ****     {
 4800              		.loc 3 372 5 view .LVU1368
 372:Include/benchmark.h ****     {
 4801              		.loc 3 372 23 discriminator 1 view .LVU1369
 4802              	.L403:
 374:Include/benchmark.h ****         {
 4803              		.loc 3 374 9 view .LVU1370
 374:Include/benchmark.h ****         {
 4804              		.loc 3 374 18 is_stmt 0 view .LVU1371
 4805 00e0 D100D1E0 		ldrsb	r0, [r1], #1
 4806              	.LVL358:
 374:Include/benchmark.h ****         {
 4807              		.loc 3 374 11 view .LVU1372
 4808 00e4 000050E3 		cmp	r0, #0
 4809 00e8 0500000A 		beq	.L401
 4810              	.L402:
 4811              	.LBB889:
 4812              	.LBB886:
 222:Include/benchmark.h ****     return 0;
 4813              		.loc 3 222 5 is_stmt 1 discriminator 1 view .LVU1373
 4814 00ec 2C3092E5 		ldr	r3, [r2, #44]
 4815 00f0 080013E3 		tst	r3, #8
 4816 00f4 FCFFFF0A 		beq	.L402
 222:Include/benchmark.h ****     return 0;
 4817              		.loc 3 222 5 discriminator 2 view .LVU1374
 4818              	.LBE886:
ARM GAS  C:\Users\even\AppData\Local\Temp\ccu0RqlP.s 			page 135


 4819              	.LBE889:
 372:Include/benchmark.h ****     {
 4820              		.loc 3 372 23 is_stmt 0 discriminator 1 view .LVU1375
 4821 00f8 0C0051E1 		cmp	r1, ip
 4822              	.LBB890:
 4823              	.LBB887:
 222:Include/benchmark.h ****     return 0;
 4824              		.loc 3 222 5 discriminator 2 view .LVU1376
 4825 00fc 300082E5 		str	r0, [r2, #48]
 222:Include/benchmark.h ****     return 0;
 4826              		.loc 3 222 5 is_stmt 1 view .LVU1377
 223:Include/benchmark.h **** }
 4827              		.loc 3 223 5 view .LVU1378
 4828              	.LBE887:
 4829              	.LBE890:
 372:Include/benchmark.h ****     {
 4830              		.loc 3 372 33 discriminator 2 view .LVU1379
 4831              	.LVL359:
 372:Include/benchmark.h ****     {
 4832              		.loc 3 372 23 discriminator 1 view .LVU1380
 4833 0100 F6FFFF1A 		bne	.L403
 4834              	.LVL360:
 4835              	.L401:
 387:Include/benchmark.h **** }
 4836              		.loc 3 387 5 view .LVU1381
 387:Include/benchmark.h **** }
 4837              		.loc 3 387 5 is_stmt 0 view .LVU1382
 4838              	.LBE892:
 4839              	.LBE894:
 414:Source/rme_benchmark.c **** 
 4840              		.loc 1 414 5 is_stmt 1 view .LVU1383
 414:Source/rme_benchmark.c **** 
 4841              		.loc 1 414 19 is_stmt 0 view .LVU1384
 4842 0104 002095E5 		ldr	r2, [r5]
 414:Source/rme_benchmark.c **** 
 4843              		.loc 1 414 26 view .LVU1385
 4844 0108 593701E3 		movw	r3, #5977
 414:Source/rme_benchmark.c **** 
 4845              		.loc 1 414 19 view .LVU1386
 4846 010c 00009EE5 		ldr	r0, [lr]
 414:Source/rme_benchmark.c **** 
 4847              		.loc 1 414 26 view .LVU1387
 4848 0110 B7314DE3 		movt	r3, 53687
 414:Source/rme_benchmark.c **** 
 4849              		.loc 1 414 19 view .LVU1388
 4850 0114 020040E0 		sub	r0, r0, r2
 414:Source/rme_benchmark.c **** 
 4851              		.loc 1 414 26 view .LVU1389
 4852 0118 933080E0 		umull	r3, r0, r3, r0
 414:Source/rme_benchmark.c **** 
 4853              		.loc 1 414 5 view .LVU1390
 4854 011c A006A0E1 		lsr	r0, r0, #13
 4855 0120 FEFFFFEB 		bl	USR_DBG_I
 4856              	.LVL361:
 416:Source/rme_benchmark.c **** 
 4857              		.loc 1 416 5 is_stmt 1 view .LVU1391
 4858              	.LBB895:
ARM GAS  C:\Users\even\AppData\Local\Temp\ccu0RqlP.s 			page 136


 4859              	.LBI895:
 368:Include/benchmark.h **** {
 4860              		.loc 3 368 7 view .LVU1392
 4861              	.LBB896:
 370:Include/benchmark.h **** 
 4862              		.loc 3 370 5 view .LVU1393
 372:Include/benchmark.h ****     {
 4863              		.loc 3 372 5 view .LVU1394
 372:Include/benchmark.h ****     {
 4864              		.loc 3 372 23 discriminator 1 view .LVU1395
 4865 0124 001000E3 		movw	r1, #:lower16:.LC25
 4866              	.LBB897:
 4867              	.LBB898:
 222:Include/benchmark.h ****     return 0;
 4868              		.loc 3 222 5 is_stmt 0 discriminator 1 view .LVU1396
 4869 0128 012AA0E3 		mov	r2, #4096
 4870 012c 001040E3 		movt	r1, #:upper16:.LC25
 4871 0130 00204EE3 		movt	r2, 57344
 4872 0134 FFC081E2 		add	ip, r1, #255
 4873              	.LVL362:
 4874              	.L406:
 222:Include/benchmark.h ****     return 0;
 4875              		.loc 3 222 5 discriminator 1 view .LVU1397
 4876              	.LBE898:
 4877              	.LBE897:
 374:Include/benchmark.h ****         {
 4878              		.loc 3 374 9 is_stmt 1 view .LVU1398
 374:Include/benchmark.h ****         {
 4879              		.loc 3 374 18 is_stmt 0 view .LVU1399
 4880 0138 D100D1E0 		ldrsb	r0, [r1], #1
 4881              	.LVL363:
 374:Include/benchmark.h ****         {
 4882              		.loc 3 374 11 view .LVU1400
 4883 013c 000050E3 		cmp	r0, #0
 4884 0140 0500000A 		beq	.L404
 4885              	.L405:
 4886              	.LBB901:
 4887              	.LBB899:
 222:Include/benchmark.h ****     return 0;
 4888              		.loc 3 222 5 is_stmt 1 discriminator 1 view .LVU1401
 4889 0144 2C3092E5 		ldr	r3, [r2, #44]
 4890 0148 080013E3 		tst	r3, #8
 4891 014c FCFFFF0A 		beq	.L405
 222:Include/benchmark.h ****     return 0;
 4892              		.loc 3 222 5 discriminator 2 view .LVU1402
 4893              	.LBE899:
 4894              	.LBE901:
 372:Include/benchmark.h ****     {
 4895              		.loc 3 372 23 is_stmt 0 discriminator 1 view .LVU1403
 4896 0150 0C0051E1 		cmp	r1, ip
 4897              	.LBB902:
 4898              	.LBB900:
 222:Include/benchmark.h ****     return 0;
 4899              		.loc 3 222 5 discriminator 2 view .LVU1404
 4900 0154 300082E5 		str	r0, [r2, #48]
 222:Include/benchmark.h ****     return 0;
 4901              		.loc 3 222 5 is_stmt 1 view .LVU1405
ARM GAS  C:\Users\even\AppData\Local\Temp\ccu0RqlP.s 			page 137


 223:Include/benchmark.h **** }
 4902              		.loc 3 223 5 view .LVU1406
 4903              	.LBE900:
 4904              	.LBE902:
 372:Include/benchmark.h ****     {
 4905              		.loc 3 372 33 discriminator 2 view .LVU1407
 4906              	.LVL364:
 372:Include/benchmark.h ****     {
 4907              		.loc 3 372 23 discriminator 1 view .LVU1408
 4908 0158 F6FFFF1A 		bne	.L406
 4909              	.LVL365:
 4910              	.L404:
 4911              	.L418:
 372:Include/benchmark.h ****     {
 4912              		.loc 3 372 23 is_stmt 0 discriminator 1 view .LVU1409
 4913              	.LBE896:
 4914              	.LBE895:
 422:Source/rme_benchmark.c **** }
 4915              		.loc 1 422 5 is_stmt 1 view .LVU1410
 422:Source/rme_benchmark.c **** }
 4916              		.loc 1 422 10 view .LVU1411
 422:Source/rme_benchmark.c **** }
 4917              		.loc 1 422 5 view .LVU1412
 422:Source/rme_benchmark.c **** }
 4918              		.loc 1 422 10 view .LVU1413
 4919 015c FEFFFFEA 		b	.L418
 4920              	.L421:
 4921              		.align	2
 4922              	.L420:
 4923 0160 401F0000 		.word	RME_Stack1+8000
 4924              		.cfi_endproc
 4925              	.LFE33:
 4927              		.section	.text.RME_Diff_Prc_Thd_Switch_Test_noused,"ax",%progbits
 4928              		.align	2
 4929              		.global	RME_Diff_Prc_Thd_Switch_Test_noused
 4930              		.syntax unified
 4931              		.arm
 4933              	RME_Diff_Prc_Thd_Switch_Test_noused:
 4934              	.LFB34:
 435:Source/rme_benchmark.c ****     /* Intra-process thread switching time */
 4935              		.loc 1 435 1 view -0
 4936              		.cfi_startproc
 4937              		@ args = 0, pretend = 0, frame = 0
 4938              		@ frame_needed = 0, uses_anonymous_args = 0
 437:Source/rme_benchmark.c ****     cnt_t Count;
 4939              		.loc 1 437 5 view .LVU1415
 438:Source/rme_benchmark.c ****     ptr_t Stack_Addr;
 4940              		.loc 1 438 5 view .LVU1416
 439:Source/rme_benchmark.c ****     ptr_t Temp;
 4941              		.loc 1 439 5 view .LVU1417
 440:Source/rme_benchmark.c ****     ptr_t Frontier;
 4942              		.loc 1 440 5 view .LVU1418
 441:Source/rme_benchmark.c ****     
 4943              		.loc 1 441 5 view .LVU1419
 443:Source/rme_benchmark.c ****     /* Initialize the thread's stack before entering it */
 4944              		.loc 1 443 5 view .LVU1420
 4945              	.LVL366:
ARM GAS  C:\Users\even\AppData\Local\Temp\ccu0RqlP.s 			page 138


 445:Source/rme_benchmark.c ****                                (ptr_t)RME_Thd_Stub,
 4946              		.loc 1 445 5 view .LVU1421
 435:Source/rme_benchmark.c ****     /* Intra-process thread switching time */
 4947              		.loc 1 435 1 is_stmt 0 view .LVU1422
 4948 0000 04E02DE5 		str	lr, [sp, #-4]!
 4949              		.cfi_def_cfa_offset 4
 4950              		.cfi_offset 14, -4
 445:Source/rme_benchmark.c ****                                (ptr_t)RME_Thd_Stub,
 4951              		.loc 1 445 16 view .LVU1423
 4952 0004 0420A0E3 		mov	r2, #4
 435:Source/rme_benchmark.c ****     /* Intra-process thread switching time */
 4953              		.loc 1 435 1 view .LVU1424
 4954 0008 0CD04DE2 		sub	sp, sp, #12
 4955              		.cfi_def_cfa_offset 16
 445:Source/rme_benchmark.c ****                                (ptr_t)RME_Thd_Stub,
 4956              		.loc 1 445 16 view .LVU1425
 4957 000c 03C0A0E3 		mov	ip, #3
 4958 0010 001000E3 		movw	r1, #:lower16:RME_Thd_Stub
 4959 0014 0230A0E3 		mov	r3, #2
 4960 0018 04208DE5 		str	r2, [sp, #4]
 4961 001c 001040E3 		movt	r1, #:upper16:RME_Thd_Stub
 4962 0020 0C009FE5 		ldr	r0, .L425
 4963 0024 0120A0E3 		mov	r2, #1
 4964 0028 00C08DE5 		str	ip, [sp]
 4965 002c FEFFFFEB 		bl	_RME_Stack_Init
 4966              	.LVL367:
 516:Source/rme_benchmark.c ****     {
 4967              		.loc 1 516 5 is_stmt 1 view .LVU1426
 516:Source/rme_benchmark.c ****     {
 4968              		.loc 1 516 22 discriminator 1 view .LVU1427
 4969              	.L423:
 528:Source/rme_benchmark.c **** }
 4970              		.loc 1 528 5 view .LVU1428
 528:Source/rme_benchmark.c **** }
 4971              		.loc 1 528 10 view .LVU1429
 528:Source/rme_benchmark.c **** }
 4972              		.loc 1 528 5 view .LVU1430
 528:Source/rme_benchmark.c **** }
 4973              		.loc 1 528 10 view .LVU1431
 4974 0030 FEFFFFEA 		b	.L423
 4975              	.L426:
 4976              		.align	2
 4977              	.L425:
 4978 0034 FC1F0000 		.word	RME_Stack1+8188
 4979              		.cfi_endproc
 4980              	.LFE34:
 4982              		.section	.rodata.RME_Diff_Prc_Switch_Test.str1.4,"aMS",%progbits,1
 4983              		.align	2
 4984              	.LC26:
 4985 0000 0D0A2073 		.ascii	"\015\012 switch to new prc 10000 time  = \000"
 4985      77697463 
 4985      6820746F 
 4985      206E6577 
 4985      20707263 
 4986              		.align	2
 4987              	.LC27:
 4988 0024 0D0A2073 		.ascii	"\015\012 switch to new prc 10000 time avg = \000"
ARM GAS  C:\Users\even\AppData\Local\Temp\ccu0RqlP.s 			page 139


 4988      77697463 
 4988      6820746F 
 4988      206E6577 
 4988      20707263 
 4989 004b 00       		.align	2
 4990              	.LC28:
 4991 004c 0D0A5465 		.ascii	"\015\012Test done!\000"
 4991      73742064 
 4991      6F6E6521 
 4991      00
 4992              		.section	.text.RME_Diff_Prc_Switch_Test,"ax",%progbits
 4993              		.align	2
 4994              		.global	RME_Diff_Prc_Switch_Test
 4995              		.syntax unified
 4996              		.arm
 4998              	RME_Diff_Prc_Switch_Test:
 4999              	.LFB35:
 539:Source/rme_benchmark.c **** 	// create benchmark page table
 5000              		.loc 1 539 1 view -0
 5001              		.cfi_startproc
 5002              		@ args = 0, pretend = 0, frame = 0
 5003              		@ frame_needed = 0, uses_anonymous_args = 0
 541:Source/rme_benchmark.c **** 	ptr_t Count;
 5004              		.loc 1 541 2 view .LVU1433
 542:Source/rme_benchmark.c **** 	Cur_addr=RME_BOOT_BENCH_PGT_RADDR;
 5005              		.loc 1 542 2 view .LVU1434
 543:Source/rme_benchmark.c **** 
 5006              		.loc 1 543 2 view .LVU1435
 539:Source/rme_benchmark.c **** 	// create benchmark page table
 5007              		.loc 1 539 1 is_stmt 0 view .LVU1436
 5008 0000 30402DE9 		push	{r4, r5, lr}
 5009              		.cfi_def_cfa_offset 12
 5010              		.cfi_offset 4, -12
 5011              		.cfi_offset 5, -8
 5012              		.cfi_offset 14, -4
 5013              	.LBB903:
 5014              	.LBB904:
 458:Include/sys.h ****                    RME_PARAM_D0(Flag_Dst),
 5015              		.loc 2 458 12 view .LVU1437
 5016 0004 1F50A0E3 		mov	r5, #31
 5017              	.LBE904:
 5018              	.LBE903:
 543:Source/rme_benchmark.c **** 
 5019              		.loc 1 543 10 view .LVU1438
 5020 0008 00C000E3 		movw	ip, #:lower16:Cur_addr
 5021              	.LBB908:
 5022              	.LBB909:
 395:Include/sys.h ****                    Cap_Cpt,
 5023              		.loc 2 395 12 view .LVU1439
 5024 000c 141900E3 		movw	r1, #2324
 5025 0010 0000A0E3 		mov	r0, #0
 5026              	.LBE909:
 5027              	.LBE908:
 554:Source/rme_benchmark.c **** 	    {
 5028              		.loc 1 554 11 view .LVU1440
 5029 0014 0040A0E3 		mov	r4, #0
 5030              	.LBB912:
ARM GAS  C:\Users\even\AppData\Local\Temp\ccu0RqlP.s 			page 140


 5031              	.LBB905:
 458:Include/sys.h ****                    RME_PARAM_D0(Flag_Dst),
 5032              		.loc 2 458 12 view .LVU1441
 5033 0018 115040E3 		movt	r5, 17
 5034              	.LBE905:
 5035              	.LBE912:
 539:Source/rme_benchmark.c **** 	// create benchmark page table
 5036              		.loc 1 539 1 view .LVU1442
 5037 001c 1CD04DE2 		sub	sp, sp, #28
 5038              		.cfi_def_cfa_offset 40
 543:Source/rme_benchmark.c **** 
 5039              		.loc 1 543 10 view .LVU1443
 5040 0020 0628A0E3 		mov	r2, #393216
 5041 0024 00C040E3 		movt	ip, #:upper16:Cur_addr
 5042              	.LBB913:
 5043              	.LBB910:
 395:Include/sys.h ****                    Cap_Cpt,
 5044              		.loc 2 395 12 view .LVU1444
 5045 0028 0130A0E3 		mov	r3, #1
 5046 002c 051040E3 		movt	r1, 5
 5047 0030 0F0C40E3 		movt	r0, 3087
 5048              	.LBE910:
 5049              	.LBE913:
 543:Source/rme_benchmark.c **** 
 5050              		.loc 1 543 10 view .LVU1445
 5051 0034 00208CE5 		str	r2, [ip]
 547:Source/rme_benchmark.c **** 			    	   Cur_addr,0x00000000U,RME_PGT_TOP,RME_PGT_SIZE_1M,RME_PGT_NUM_4K);
 5052              		.loc 1 547 2 is_stmt 1 view .LVU1446
 5053              	.LVL368:
 5054              	.LBB914:
 5055              	.LBI908:
 385:Include/sys.h ****                       cid_t Cap_Kom,
 5056              		.loc 2 385 7 view .LVU1447
 5057              	.LBB911:
 395:Include/sys.h ****                    Cap_Cpt,
 5058              		.loc 2 395 5 view .LVU1448
 395:Include/sys.h ****                    Cap_Cpt,
 5059              		.loc 2 395 12 is_stmt 0 view .LVU1449
 5060 0038 FEFFFFEB 		bl	RME_Svc
 5061              	.LVL369:
 399:Include/sys.h **** }
 5062              		.loc 2 399 32 is_stmt 1 view .LVU1450
 399:Include/sys.h **** }
 5063              		.loc 2 399 32 is_stmt 0 view .LVU1451
 5064              	.LBE911:
 5065              	.LBE914:
 554:Source/rme_benchmark.c **** 	    {
 5066              		.loc 1 554 2 is_stmt 1 view .LVU1452
 554:Source/rme_benchmark.c **** 	    {
 5067              		.loc 1 554 20 discriminator 1 view .LVU1453
 5068              	.L428:
 556:Source/rme_benchmark.c **** 										 RME_BOOT_INIT_PGT,
 5069              		.loc 1 556 3 view .LVU1454
 5070              	.LBB915:
 5071              	.LBI903:
 451:Include/sys.h ****                       ptr_t Pos_Dst,
 5072              		.loc 2 451 7 view .LVU1455
ARM GAS  C:\Users\even\AppData\Local\Temp\ccu0RqlP.s 			page 141


 5073              	.LBB906:
 458:Include/sys.h ****                    RME_PARAM_D0(Flag_Dst),
 5074              		.loc 2 458 5 view .LVU1456
 458:Include/sys.h ****                    RME_PARAM_D0(Flag_Dst),
 5075              		.loc 2 458 12 is_stmt 0 view .LVU1457
 5076 003c 012884E3 		orr	r2, r4, #65536
 5077 0040 091884E3 		orr	r1, r4, #589824
 5078 0044 0030A0E3 		mov	r3, #0
 5079 0048 0500A0E1 		mov	r0, r5
 5080              	.LBE906:
 5081              	.LBE915:
 554:Source/rme_benchmark.c **** 	    {
 5082              		.loc 1 554 33 discriminator 3 view .LVU1458
 5083 004c 014084E2 		add	r4, r4, #1
 5084              	.LVL370:
 5085              	.LBB916:
 5086              	.LBB907:
 458:Include/sys.h ****                    RME_PARAM_D0(Flag_Dst),
 5087              		.loc 2 458 12 view .LVU1459
 5088 0050 FEFFFFEB 		bl	RME_Svc
 5089              	.LVL371:
 462:Include/sys.h **** }
 5090              		.loc 2 462 26 is_stmt 1 view .LVU1460
 462:Include/sys.h **** }
 5091              		.loc 2 462 26 is_stmt 0 view .LVU1461
 5092              	.LBE907:
 5093              	.LBE916:
 554:Source/rme_benchmark.c **** 	    {
 5094              		.loc 1 554 33 is_stmt 1 discriminator 3 view .LVU1462
 554:Source/rme_benchmark.c **** 	    {
 5095              		.loc 1 554 20 discriminator 1 view .LVU1463
 5096 0054 010B54E3 		cmp	r4, #1024
 5097 0058 F7FFFF1A 		bne	.L428
 5098              	.LBB917:
 5099              	.LBB918:
 458:Include/sys.h ****                    RME_PARAM_D0(Flag_Dst),
 5100              		.loc 2 458 12 is_stmt 0 view .LVU1464
 5101 005c 0350A0E3 		mov	r5, #3
 5102 0060 115040E3 		movt	r5, 17
 5103              	.LVL372:
 5104              	.L429:
 458:Include/sys.h ****                    RME_PARAM_D0(Flag_Dst),
 5105              		.loc 2 458 12 view .LVU1465
 5106              	.LBE918:
 5107              	.LBE917:
 566:Source/rme_benchmark.c **** 										 RME_PGT_READ|RME_PGT_WRITE,
 5108              		.loc 1 566 7 is_stmt 1 view .LVU1466
 5109              	.LBB921:
 5110              	.LBI917:
 451:Include/sys.h ****                       ptr_t Pos_Dst,
 5111              		.loc 2 451 7 view .LVU1467
 5112              	.LBB919:
 458:Include/sys.h ****                    RME_PARAM_D0(Flag_Dst),
 5113              		.loc 2 458 5 view .LVU1468
 458:Include/sys.h ****                    RME_PARAM_D0(Flag_Dst),
 5114              		.loc 2 458 12 is_stmt 0 view .LVU1469
 5115 0064 012884E3 		orr	r2, r4, #65536
ARM GAS  C:\Users\even\AppData\Local\Temp\ccu0RqlP.s 			page 142


 5116 0068 091884E3 		orr	r1, r4, #589824
 5117 006c 0030A0E3 		mov	r3, #0
 5118 0070 0500A0E1 		mov	r0, r5
 5119              	.LBE919:
 5120              	.LBE921:
 564:Source/rme_benchmark.c **** 	    {
 5121              		.loc 1 564 24 discriminator 1 view .LVU1470
 5122 0074 014084E2 		add	r4, r4, #1
 5123              	.LVL373:
 5124              	.LBB922:
 5125              	.LBB920:
 458:Include/sys.h ****                    RME_PARAM_D0(Flag_Dst),
 5126              		.loc 2 458 12 view .LVU1471
 5127 0078 FEFFFFEB 		bl	RME_Svc
 5128              	.LVL374:
 462:Include/sys.h **** }
 5129              		.loc 2 462 26 is_stmt 1 view .LVU1472
 462:Include/sys.h **** }
 5130              		.loc 2 462 26 is_stmt 0 view .LVU1473
 5131              	.LBE920:
 5132              	.LBE922:
 564:Source/rme_benchmark.c **** 	    {
 5133              		.loc 1 564 37 is_stmt 1 discriminator 3 view .LVU1474
 564:Source/rme_benchmark.c **** 	    {
 5134              		.loc 1 564 24 discriminator 1 view .LVU1475
 5135 007c 060C54E3 		cmp	r4, #1536
 5136 0080 F7FFFF1A 		bne	.L429
 5137              	.LBB923:
 5138              	.LBB924:
 458:Include/sys.h ****                    RME_PARAM_D0(Flag_Dst),
 5139              		.loc 2 458 12 is_stmt 0 view .LVU1476
 5140 0084 0350A0E3 		mov	r5, #3
 5141 0088 115040E3 		movt	r5, 17
 5142              	.L430:
 5143              	.LVL375:
 458:Include/sys.h ****                    RME_PARAM_D0(Flag_Dst),
 5144              		.loc 2 458 12 view .LVU1477
 5145              	.LBE924:
 5146              	.LBE923:
 578:Source/rme_benchmark.c **** 	    								 RME_PGT_READ|RME_PGT_WRITE,
 5147              		.loc 1 578 7 is_stmt 1 view .LVU1478
 5148              	.LBB927:
 5149              	.LBI923:
 451:Include/sys.h ****                       ptr_t Pos_Dst,
 5150              		.loc 2 451 7 view .LVU1479
 5151              	.LBB925:
 458:Include/sys.h ****                    RME_PARAM_D0(Flag_Dst),
 5152              		.loc 2 458 5 view .LVU1480
 458:Include/sys.h ****                    RME_PARAM_D0(Flag_Dst),
 5153              		.loc 2 458 12 is_stmt 0 view .LVU1481
 5154 008c 012884E3 		orr	r2, r4, #65536
 5155 0090 091884E3 		orr	r1, r4, #589824
 5156 0094 0030A0E3 		mov	r3, #0
 5157 0098 0500A0E1 		mov	r0, r5
 5158              	.LBE925:
 5159              	.LBE927:
 576:Source/rme_benchmark.c **** 	    {
ARM GAS  C:\Users\even\AppData\Local\Temp\ccu0RqlP.s 			page 143


 5160              		.loc 1 576 24 discriminator 1 view .LVU1482
 5161 009c 014084E2 		add	r4, r4, #1
 5162              	.LVL376:
 5163              	.LBB928:
 5164              	.LBB926:
 458:Include/sys.h ****                    RME_PARAM_D0(Flag_Dst),
 5165              		.loc 2 458 12 view .LVU1483
 5166 00a0 FEFFFFEB 		bl	RME_Svc
 5167              	.LVL377:
 462:Include/sys.h **** }
 5168              		.loc 2 462 26 is_stmt 1 view .LVU1484
 462:Include/sys.h **** }
 5169              		.loc 2 462 26 is_stmt 0 view .LVU1485
 5170              	.LBE926:
 5171              	.LBE928:
 576:Source/rme_benchmark.c **** 	    {
 5172              		.loc 1 576 37 is_stmt 1 discriminator 3 view .LVU1486
 576:Source/rme_benchmark.c **** 	    {
 5173              		.loc 1 576 24 discriminator 1 view .LVU1487
 5174 00a4 020B54E3 		cmp	r4, #2048
 5175 00a8 F7FFFF1A 		bne	.L430
 612:Source/rme_benchmark.c **** 	    				   RME_BOOT_BENCH_PGT);
 5176              		.loc 1 612 6 view .LVU1488
 5177              	.LVL378:
 5178              	.LBB929:
 5179              	.LBI929:
 282:Include/sys.h ****                       cid_t Cap_Prc,
 5180              		.loc 2 282 7 view .LVU1489
 5181              	.LBB930:
 287:Include/sys.h ****                    Cap_Cpt_Crt,
 5182              		.loc 2 287 5 view .LVU1490
 287:Include/sys.h ****                    Cap_Cpt_Crt,
 5183              		.loc 2 287 12 is_stmt 0 view .LVU1491
 5184 00ac 0930A0E3 		mov	r3, #9
 5185 00b0 0020A0E3 		mov	r2, #0
 5186 00b4 1110A0E3 		mov	r1, #17
 5187 00b8 1508A0E3 		mov	r0, #1376256
 5188 00bc FEFFFFEB 		bl	RME_Svc
 5189              	.LVL379:
 291:Include/sys.h **** }
 5190              		.loc 2 291 28 is_stmt 1 view .LVU1492
 291:Include/sys.h **** }
 5191              		.loc 2 291 28 is_stmt 0 view .LVU1493
 5192              	.LBE930:
 5193              	.LBE929:
 619:Source/rme_benchmark.c **** 	    		(ptr_t)RME_Diff_Prc_Thd_Switch_Test_Thd,
 5194              		.loc 1 619 8 is_stmt 1 view .LVU1494
 5195 00c0 5C119FE5 		ldr	r1, .L463
 5196 00c4 000000E3 		movw	r0, #:lower16:RME_Diff_Prc_Thd_Switch_Test_Thd
 5197 00c8 02C9A0E3 		mov	ip, #32768
 5198 00cc 0621E0E3 		mvn	r2, #-2147483647
 5199 00d0 000040E3 		movt	r0, #:upper16:RME_Diff_Prc_Thd_Switch_Test_Thd
 5200 00d4 0030A0E3 		mov	r3, #0
 5201 00d8 10108DE5 		str	r1, [sp, #16]
 5202 00dc 0810A0E3 		mov	r1, #8
 5203 00e0 0C208DE5 		str	r2, [sp, #12]
 5204 00e4 0420A0E3 		mov	r2, #4
ARM GAS  C:\Users\even\AppData\Local\Temp\ccu0RqlP.s 			page 144


 5205 00e8 01108DE8 		stm	sp, {r0, ip}
 5206 00ec 1100A0E3 		mov	r0, #17
 5207 00f0 08C08DE5 		str	ip, [sp, #8]
 628:Source/rme_benchmark.c **** 	    		for(Count=0;Count<10000;Count++)
 5208              		.loc 1 628 13 is_stmt 0 discriminator 1 view .LVU1495
 5209 00f4 005000E3 		movw	r5, #:lower16:start
 619:Source/rme_benchmark.c **** 	    		(ptr_t)RME_Diff_Prc_Thd_Switch_Test_Thd,
 5210              		.loc 1 619 8 view .LVU1496
 5211 00f8 FEFFFFEB 		bl	RME_Thd_Create
 5212              	.LVL380:
 628:Source/rme_benchmark.c **** 	    		for(Count=0;Count<10000;Count++)
 5213              		.loc 1 628 8 is_stmt 1 view .LVU1497
 5214              	.LBB931:
 5215              	.LBI931:
 391:Include/benchmark.h **** {
 5216              		.loc 3 391 7 view .LVU1498
 5217              	.LBB932:
 393:Include/benchmark.h **** 	temp=RME_A7A_REG(&RME_A7A_GTWD_GTCR0);
 5218              		.loc 3 393 2 view .LVU1499
 394:Include/benchmark.h **** 	return temp;
 5219              		.loc 3 394 2 view .LVU1500
 394:Include/benchmark.h **** 	return temp;
 5220              		.loc 3 394 6 is_stmt 0 view .LVU1501
 5221 00fc 0030A0E3 		mov	r3, #0
 5222              	.LBE932:
 5223              	.LBE931:
 628:Source/rme_benchmark.c **** 	    		for(Count=0;Count<10000;Count++)
 5224              		.loc 1 628 13 discriminator 1 view .LVU1502
 5225 0100 104702E3 		movw	r4, #10000
 5226              	.LBB935:
 5227              	.LBB933:
 394:Include/benchmark.h **** 	return temp;
 5228              		.loc 3 394 6 view .LVU1503
 5229 0104 F0384FE3 		movt	r3, 63728
 5230              	.LBE933:
 5231              	.LBE935:
 628:Source/rme_benchmark.c **** 	    		for(Count=0;Count<10000;Count++)
 5232              		.loc 1 628 13 discriminator 1 view .LVU1504
 5233 0108 005040E3 		movt	r5, #:upper16:start
 5234              	.LBB936:
 5235              	.LBB934:
 394:Include/benchmark.h **** 	return temp;
 5236              		.loc 3 394 6 view .LVU1505
 5237 010c 003293E5 		ldr	r3, [r3, #512]
 5238              	.LVL381:
 395:Include/benchmark.h ****     /*USR_DBG_S("\r\n time=");
 5239              		.loc 3 395 2 is_stmt 1 view .LVU1506
 395:Include/benchmark.h ****     /*USR_DBG_S("\r\n time=");
 5240              		.loc 3 395 2 is_stmt 0 view .LVU1507
 5241              	.LBE934:
 5242              	.LBE936:
 628:Source/rme_benchmark.c **** 	    		for(Count=0;Count<10000;Count++)
 5243              		.loc 1 628 13 discriminator 1 view .LVU1508
 5244 0110 003085E5 		str	r3, [r5]
 629:Source/rme_benchmark.c **** 	    		    {
 5245              		.loc 1 629 8 is_stmt 1 view .LVU1509
 5246              	.LVL382:
ARM GAS  C:\Users\even\AppData\Local\Temp\ccu0RqlP.s 			page 145


 629:Source/rme_benchmark.c **** 	    		    {
 5247              		.loc 1 629 25 discriminator 1 view .LVU1510
 5248              	.L431:
 632:Source/rme_benchmark.c **** 	    				/*end=get_time();
 5249              		.loc 1 632 10 view .LVU1511
 5250              	.LBB937:
 5251              	.LBI937:
 167:Include/sys.h ****                   ptr_t Is_Yield)
 5252              		.loc 2 167 7 view .LVU1512
 5253              	.LBB938:
 170:Include/sys.h ****                    0U,
 5254              		.loc 2 170 5 view .LVU1513
 170:Include/sys.h ****                    0U,
 5255              		.loc 2 170 12 is_stmt 0 view .LVU1514
 5256 0114 0030A0E3 		mov	r3, #0
 5257 0118 0810A0E3 		mov	r1, #8
 5258 011c 0320A0E1 		mov	r2, r3
 5259 0120 0908A0E3 		mov	r0, #589824
 5260 0124 FEFFFFEB 		bl	RME_Svc
 5261              	.LVL383:
 174:Include/sys.h **** }
 5262              		.loc 2 174 23 is_stmt 1 view .LVU1515
 174:Include/sys.h **** }
 5263              		.loc 2 174 23 is_stmt 0 view .LVU1516
 5264              	.LBE938:
 5265              	.LBE937:
 629:Source/rme_benchmark.c **** 	    		    {
 5266              		.loc 1 629 37 is_stmt 1 discriminator 3 view .LVU1517
 629:Source/rme_benchmark.c **** 	    		    {
 5267              		.loc 1 629 25 discriminator 1 view .LVU1518
 5268 0128 014054E2 		subs	r4, r4, #1
 5269 012c F8FFFF1A 		bne	.L431
 640:Source/rme_benchmark.c **** 	    	    USR_DBG_S("\r\n switch to new prc 10000 time  = ");
 5270              		.loc 1 640 11 view .LVU1519
 5271              	.LBB939:
 5272              	.LBI939:
 391:Include/benchmark.h **** {
 5273              		.loc 3 391 7 view .LVU1520
 5274              	.LBB940:
 393:Include/benchmark.h **** 	temp=RME_A7A_REG(&RME_A7A_GTWD_GTCR0);
 5275              		.loc 3 393 2 view .LVU1521
 394:Include/benchmark.h **** 	return temp;
 5276              		.loc 3 394 2 view .LVU1522
 394:Include/benchmark.h **** 	return temp;
 5277              		.loc 3 394 6 is_stmt 0 view .LVU1523
 5278 0130 0030A0E3 		mov	r3, #0
 5279 0134 001000E3 		movw	r1, #:lower16:.LC26
 5280 0138 F0384FE3 		movt	r3, 63728
 5281 013c 001040E3 		movt	r1, #:upper16:.LC26
 5282 0140 003293E5 		ldr	r3, [r3, #512]
 5283              	.LVL384:
 395:Include/benchmark.h ****     /*USR_DBG_S("\r\n time=");
 5284              		.loc 3 395 2 is_stmt 1 view .LVU1524
 395:Include/benchmark.h ****     /*USR_DBG_S("\r\n time=");
 5285              		.loc 3 395 2 is_stmt 0 view .LVU1525
 5286              	.LBE940:
 5287              	.LBE939:
ARM GAS  C:\Users\even\AppData\Local\Temp\ccu0RqlP.s 			page 146


 5288              	.LBB941:
 5289              	.LBB942:
 5290              	.LBB943:
 5291              	.LBB944:
 222:Include/benchmark.h ****     return 0;
 5292              		.loc 3 222 5 discriminator 1 view .LVU1526
 5293 0144 012AA0E3 		mov	r2, #4096
 5294              	.LBE944:
 5295              	.LBE943:
 5296              	.LBE942:
 5297              	.LBE941:
 640:Source/rme_benchmark.c **** 	    	    USR_DBG_S("\r\n switch to new prc 10000 time  = ");
 5298              		.loc 1 640 14 discriminator 1 view .LVU1527
 5299 0148 004000E3 		movw	r4, #:lower16:end
 5300              	.LBB953:
 5301              	.LBB951:
 5302              	.LBB948:
 5303              	.LBB945:
 222:Include/benchmark.h ****     return 0;
 5304              		.loc 3 222 5 discriminator 1 view .LVU1528
 5305 014c 00204EE3 		movt	r2, 57344
 5306 0150 FFC081E2 		add	ip, r1, #255
 5307              	.LBE945:
 5308              	.LBE948:
 5309              	.LBE951:
 5310              	.LBE953:
 640:Source/rme_benchmark.c **** 	    	    USR_DBG_S("\r\n switch to new prc 10000 time  = ");
 5311              		.loc 1 640 14 discriminator 1 view .LVU1529
 5312 0154 004040E3 		movt	r4, #:upper16:end
 5313 0158 003084E5 		str	r3, [r4]
 641:Source/rme_benchmark.c **** 	    	    	    	    USR_DBG_I(end-start);
 5314              		.loc 1 641 11 is_stmt 1 view .LVU1530
 5315              	.LVL385:
 5316              	.LBB954:
 5317              	.LBI941:
 368:Include/benchmark.h **** {
 5318              		.loc 3 368 7 view .LVU1531
 5319              	.LBB952:
 370:Include/benchmark.h **** 
 5320              		.loc 3 370 5 view .LVU1532
 372:Include/benchmark.h ****     {
 5321              		.loc 3 372 5 view .LVU1533
 372:Include/benchmark.h ****     {
 5322              		.loc 3 372 23 discriminator 1 view .LVU1534
 5323              	.L434:
 374:Include/benchmark.h ****         {
 5324              		.loc 3 374 9 view .LVU1535
 374:Include/benchmark.h ****         {
 5325              		.loc 3 374 18 is_stmt 0 view .LVU1536
 5326 015c D100D1E0 		ldrsb	r0, [r1], #1
 5327              	.LVL386:
 374:Include/benchmark.h ****         {
 5328              		.loc 3 374 11 view .LVU1537
 5329 0160 000050E3 		cmp	r0, #0
 5330 0164 0500000A 		beq	.L432
 5331              	.L433:
 5332              	.LBB949:
ARM GAS  C:\Users\even\AppData\Local\Temp\ccu0RqlP.s 			page 147


 5333              	.LBB946:
 222:Include/benchmark.h ****     return 0;
 5334              		.loc 3 222 5 is_stmt 1 discriminator 1 view .LVU1538
 5335 0168 2C3092E5 		ldr	r3, [r2, #44]
 5336 016c 080013E3 		tst	r3, #8
 5337 0170 FCFFFF0A 		beq	.L433
 222:Include/benchmark.h ****     return 0;
 5338              		.loc 3 222 5 discriminator 2 view .LVU1539
 5339              	.LBE946:
 5340              	.LBE949:
 372:Include/benchmark.h ****     {
 5341              		.loc 3 372 23 is_stmt 0 discriminator 1 view .LVU1540
 5342 0174 0C0051E1 		cmp	r1, ip
 5343              	.LBB950:
 5344              	.LBB947:
 222:Include/benchmark.h ****     return 0;
 5345              		.loc 3 222 5 discriminator 2 view .LVU1541
 5346 0178 300082E5 		str	r0, [r2, #48]
 222:Include/benchmark.h ****     return 0;
 5347              		.loc 3 222 5 is_stmt 1 view .LVU1542
 223:Include/benchmark.h **** }
 5348              		.loc 3 223 5 view .LVU1543
 5349              	.LBE947:
 5350              	.LBE950:
 372:Include/benchmark.h ****     {
 5351              		.loc 3 372 33 discriminator 2 view .LVU1544
 5352              	.LVL387:
 372:Include/benchmark.h ****     {
 5353              		.loc 3 372 23 discriminator 1 view .LVU1545
 5354 017c F6FFFF1A 		bne	.L434
 5355              	.LVL388:
 5356              	.L432:
 387:Include/benchmark.h **** }
 5357              		.loc 3 387 5 view .LVU1546
 387:Include/benchmark.h **** }
 5358              		.loc 3 387 5 is_stmt 0 view .LVU1547
 5359              	.LBE952:
 5360              	.LBE954:
 642:Source/rme_benchmark.c **** 	    	    USR_DBG_S("\r\n switch to new prc 10000 time avg = ");
 5361              		.loc 1 642 21 is_stmt 1 view .LVU1548
 642:Source/rme_benchmark.c **** 	    	    USR_DBG_S("\r\n switch to new prc 10000 time avg = ");
 5362              		.loc 1 642 34 is_stmt 0 view .LVU1549
 5363 0180 000094E5 		ldr	r0, [r4]
 5364 0184 003095E5 		ldr	r3, [r5]
 642:Source/rme_benchmark.c **** 	    	    USR_DBG_S("\r\n switch to new prc 10000 time avg = ");
 5365              		.loc 1 642 21 view .LVU1550
 5366 0188 030040E0 		sub	r0, r0, r3
 5367 018c FEFFFFEB 		bl	USR_DBG_I
 5368              	.LVL389:
 643:Source/rme_benchmark.c **** 	    	    USR_DBG_I((end-start)/10000);
 5369              		.loc 1 643 11 is_stmt 1 view .LVU1551
 5370              	.LBB955:
 5371              	.LBI955:
 368:Include/benchmark.h **** {
 5372              		.loc 3 368 7 view .LVU1552
 5373              	.LBB956:
 370:Include/benchmark.h **** 
ARM GAS  C:\Users\even\AppData\Local\Temp\ccu0RqlP.s 			page 148


 5374              		.loc 3 370 5 view .LVU1553
 372:Include/benchmark.h ****     {
 5375              		.loc 3 372 5 view .LVU1554
 372:Include/benchmark.h ****     {
 5376              		.loc 3 372 23 discriminator 1 view .LVU1555
 5377 0190 001000E3 		movw	r1, #:lower16:.LC27
 5378              	.LBB957:
 5379              	.LBB958:
 222:Include/benchmark.h ****     return 0;
 5380              		.loc 3 222 5 is_stmt 0 discriminator 1 view .LVU1556
 5381 0194 012AA0E3 		mov	r2, #4096
 5382 0198 001040E3 		movt	r1, #:upper16:.LC27
 5383 019c 00204EE3 		movt	r2, 57344
 5384 01a0 FFC081E2 		add	ip, r1, #255
 5385              	.LVL390:
 5386              	.L437:
 222:Include/benchmark.h ****     return 0;
 5387              		.loc 3 222 5 discriminator 1 view .LVU1557
 5388              	.LBE958:
 5389              	.LBE957:
 374:Include/benchmark.h ****         {
 5390              		.loc 3 374 9 is_stmt 1 view .LVU1558
 374:Include/benchmark.h ****         {
 5391              		.loc 3 374 18 is_stmt 0 view .LVU1559
 5392 01a4 D100D1E0 		ldrsb	r0, [r1], #1
 5393              	.LVL391:
 374:Include/benchmark.h ****         {
 5394              		.loc 3 374 11 view .LVU1560
 5395 01a8 000050E3 		cmp	r0, #0
 5396 01ac 0500000A 		beq	.L435
 5397              	.L436:
 5398              	.LBB961:
 5399              	.LBB959:
 222:Include/benchmark.h ****     return 0;
 5400              		.loc 3 222 5 is_stmt 1 discriminator 1 view .LVU1561
 5401 01b0 2C3092E5 		ldr	r3, [r2, #44]
 5402 01b4 080013E3 		tst	r3, #8
 5403 01b8 FCFFFF0A 		beq	.L436
 222:Include/benchmark.h ****     return 0;
 5404              		.loc 3 222 5 discriminator 2 view .LVU1562
 5405              	.LBE959:
 5406              	.LBE961:
 372:Include/benchmark.h ****     {
 5407              		.loc 3 372 23 is_stmt 0 discriminator 1 view .LVU1563
 5408 01bc 01005CE1 		cmp	ip, r1
 5409              	.LBB962:
 5410              	.LBB960:
 222:Include/benchmark.h ****     return 0;
 5411              		.loc 3 222 5 discriminator 2 view .LVU1564
 5412 01c0 300082E5 		str	r0, [r2, #48]
 222:Include/benchmark.h ****     return 0;
 5413              		.loc 3 222 5 is_stmt 1 view .LVU1565
 223:Include/benchmark.h **** }
 5414              		.loc 3 223 5 view .LVU1566
 5415              	.LBE960:
 5416              	.LBE962:
 372:Include/benchmark.h ****     {
ARM GAS  C:\Users\even\AppData\Local\Temp\ccu0RqlP.s 			page 149


 5417              		.loc 3 372 33 discriminator 2 view .LVU1567
 5418              	.LVL392:
 372:Include/benchmark.h ****     {
 5419              		.loc 3 372 23 discriminator 1 view .LVU1568
 5420 01c4 F6FFFF1A 		bne	.L437
 5421              	.LVL393:
 5422              	.L435:
 387:Include/benchmark.h **** }
 5423              		.loc 3 387 5 view .LVU1569
 387:Include/benchmark.h **** }
 5424              		.loc 3 387 5 is_stmt 0 view .LVU1570
 5425              	.LBE956:
 5426              	.LBE955:
 644:Source/rme_benchmark.c **** 
 5427              		.loc 1 644 11 is_stmt 1 view .LVU1571
 644:Source/rme_benchmark.c **** 
 5428              		.loc 1 644 25 is_stmt 0 view .LVU1572
 5429 01c8 002095E5 		ldr	r2, [r5]
 644:Source/rme_benchmark.c **** 
 5430              		.loc 1 644 32 view .LVU1573
 5431 01cc 593701E3 		movw	r3, #5977
 644:Source/rme_benchmark.c **** 
 5432              		.loc 1 644 25 view .LVU1574
 5433 01d0 000094E5 		ldr	r0, [r4]
 644:Source/rme_benchmark.c **** 
 5434              		.loc 1 644 32 view .LVU1575
 5435 01d4 B7314DE3 		movt	r3, 53687
 644:Source/rme_benchmark.c **** 
 5436              		.loc 1 644 25 view .LVU1576
 5437 01d8 020040E0 		sub	r0, r0, r2
 644:Source/rme_benchmark.c **** 
 5438              		.loc 1 644 32 view .LVU1577
 5439 01dc 933080E0 		umull	r3, r0, r3, r0
 644:Source/rme_benchmark.c **** 
 5440              		.loc 1 644 11 view .LVU1578
 5441 01e0 A006A0E1 		lsr	r0, r0, #13
 5442 01e4 FEFFFFEB 		bl	USR_DBG_I
 5443              	.LVL394:
 648:Source/rme_benchmark.c **** 	    	    while(1);
 5444              		.loc 1 648 11 is_stmt 1 view .LVU1579
 5445              	.LBB963:
 5446              	.LBI963:
 368:Include/benchmark.h **** {
 5447              		.loc 3 368 7 view .LVU1580
 5448              	.LBB964:
 370:Include/benchmark.h **** 
 5449              		.loc 3 370 5 view .LVU1581
 372:Include/benchmark.h ****     {
 5450              		.loc 3 372 5 view .LVU1582
 372:Include/benchmark.h ****     {
 5451              		.loc 3 372 23 discriminator 1 view .LVU1583
 5452 01e8 001000E3 		movw	r1, #:lower16:.LC28
 5453              	.LBB965:
 5454              	.LBB966:
 222:Include/benchmark.h ****     return 0;
 5455              		.loc 3 222 5 is_stmt 0 discriminator 1 view .LVU1584
 5456 01ec 012AA0E3 		mov	r2, #4096
ARM GAS  C:\Users\even\AppData\Local\Temp\ccu0RqlP.s 			page 150


 5457 01f0 001040E3 		movt	r1, #:upper16:.LC28
 5458 01f4 00204EE3 		movt	r2, 57344
 5459 01f8 FFC081E2 		add	ip, r1, #255
 5460              	.LVL395:
 5461              	.L440:
 222:Include/benchmark.h ****     return 0;
 5462              		.loc 3 222 5 discriminator 1 view .LVU1585
 5463              	.LBE966:
 5464              	.LBE965:
 374:Include/benchmark.h ****         {
 5465              		.loc 3 374 9 is_stmt 1 view .LVU1586
 374:Include/benchmark.h ****         {
 5466              		.loc 3 374 18 is_stmt 0 view .LVU1587
 5467 01fc D100D1E0 		ldrsb	r0, [r1], #1
 5468              	.LVL396:
 374:Include/benchmark.h ****         {
 5469              		.loc 3 374 11 view .LVU1588
 5470 0200 000050E3 		cmp	r0, #0
 5471 0204 0500000A 		beq	.L438
 5472              	.L439:
 5473              	.LBB969:
 5474              	.LBB967:
 222:Include/benchmark.h ****     return 0;
 5475              		.loc 3 222 5 is_stmt 1 discriminator 1 view .LVU1589
 5476 0208 2C3092E5 		ldr	r3, [r2, #44]
 5477 020c 080013E3 		tst	r3, #8
 5478 0210 FCFFFF0A 		beq	.L439
 222:Include/benchmark.h ****     return 0;
 5479              		.loc 3 222 5 discriminator 2 view .LVU1590
 5480              	.LBE967:
 5481              	.LBE969:
 372:Include/benchmark.h ****     {
 5482              		.loc 3 372 23 is_stmt 0 discriminator 1 view .LVU1591
 5483 0214 0C0051E1 		cmp	r1, ip
 5484              	.LBB970:
 5485              	.LBB968:
 222:Include/benchmark.h ****     return 0;
 5486              		.loc 3 222 5 discriminator 2 view .LVU1592
 5487 0218 300082E5 		str	r0, [r2, #48]
 222:Include/benchmark.h ****     return 0;
 5488              		.loc 3 222 5 is_stmt 1 view .LVU1593
 223:Include/benchmark.h **** }
 5489              		.loc 3 223 5 view .LVU1594
 5490              	.LBE968:
 5491              	.LBE970:
 372:Include/benchmark.h ****     {
 5492              		.loc 3 372 33 discriminator 2 view .LVU1595
 5493              	.LVL397:
 372:Include/benchmark.h ****     {
 5494              		.loc 3 372 23 discriminator 1 view .LVU1596
 5495 021c F6FFFF1A 		bne	.L440
 5496              	.LVL398:
 5497              	.L438:
 5498              	.L461:
 372:Include/benchmark.h ****     {
 5499              		.loc 3 372 23 is_stmt 0 discriminator 1 view .LVU1597
 5500              	.LBE964:
ARM GAS  C:\Users\even\AppData\Local\Temp\ccu0RqlP.s 			page 151


 5501              	.LBE963:
 649:Source/rme_benchmark.c **** }
 5502              		.loc 1 649 11 is_stmt 1 view .LVU1598
 649:Source/rme_benchmark.c **** }
 5503              		.loc 1 649 16 view .LVU1599
 649:Source/rme_benchmark.c **** }
 5504              		.loc 1 649 11 view .LVU1600
 649:Source/rme_benchmark.c **** }
 5505              		.loc 1 649 16 view .LVU1601
 5506 0220 FEFFFFEA 		b	.L461
 5507              	.L464:
 5508              		.align	2
 5509              	.L463:
 5510 0224 401F0000 		.word	RME_Stack3+8000
 5511              		.cfi_endproc
 5512              	.LFE35:
 5514              		.section	.rodata.RME_Diff_Inv_test.str1.4,"aMS",%progbits,1
 5515              		.align	2
 5516              	.LC29:
 5517 0000 0D0A6372 		.ascii	"\015\012create benchmark page table  retval= \000"
 5517      65617465 
 5517      2062656E 
 5517      63686D61 
 5517      726B2070 
 5518              		.align	2
 5519              	.LC30:
 5520 0028 0D0A2063 		.ascii	"\015\012 create benchmark thd  retval= \000"
 5520      72656174 
 5520      65206265 
 5520      6E63686D 
 5520      61726B20 
 5521 004a 0000     		.align	2
 5522              	.LC31:
 5523 004c 0D0A2063 		.ascii	"\015\012 create benchmark INV  retval= \000"
 5523      72656174 
 5523      65206265 
 5523      6E63686D 
 5523      61726B20 
 5524 006e 0000     		.align	2
 5525              	.LC32:
 5526 0070 0D0A2069 		.ascii	"\015\012 inv 10000 time  = \000"
 5526      6E762031 
 5526      30303030 
 5526      2074696D 
 5526      6520203D 
 5527 0086 0000     		.align	2
 5528              	.LC33:
 5529 0088 0D0A2069 		.ascii	"\015\012 inv 10000 time avg = \000"
 5529      6E762031 
 5529      30303030 
 5529      2074696D 
 5529      65206176 
 5530              		.section	.text.RME_Diff_Inv_test,"ax",%progbits
 5531              		.align	2
 5532              		.global	RME_Diff_Inv_test
 5533              		.syntax unified
 5534              		.arm
ARM GAS  C:\Users\even\AppData\Local\Temp\ccu0RqlP.s 			page 152


 5536              	RME_Diff_Inv_test:
 5537              	.LFB37:
 657:Source/rme_benchmark.c **** 
 658:Source/rme_benchmark.c **** }
 659:Source/rme_benchmark.c **** 
 660:Source/rme_benchmark.c **** void RME_Deadloop(void);
 661:Source/rme_benchmark.c **** 
 662:Source/rme_benchmark.c **** void RME_Diff_Inv_test(void)
 663:Source/rme_benchmark.c **** {
 5538              		.loc 1 663 1 view -0
 5539              		.cfi_startproc
 5540              		@ args = 0, pretend = 0, frame = 0
 5541              		@ frame_needed = 0, uses_anonymous_args = 0
 664:Source/rme_benchmark.c **** 
 665:Source/rme_benchmark.c **** 	ret_t Retval;
 5542              		.loc 1 665 2 view .LVU1603
 666:Source/rme_benchmark.c **** 	ptr_t Count;
 5543              		.loc 1 666 2 view .LVU1604
 667:Source/rme_benchmark.c **** 	Cur_addr=RME_BOOT_BENCH_PGT_RADDR;
 5544              		.loc 1 667 2 view .LVU1605
 663:Source/rme_benchmark.c **** 
 5545              		.loc 1 663 1 is_stmt 0 view .LVU1606
 5546 0000 70402DE9 		push	{r4, r5, r6, lr}
 5547              		.cfi_def_cfa_offset 16
 5548              		.cfi_offset 4, -16
 5549              		.cfi_offset 5, -12
 5550              		.cfi_offset 6, -8
 5551              		.cfi_offset 14, -4
 5552              	.LBB971:
 5553              	.LBB972:
 395:Include/sys.h ****                    Cap_Cpt,
 5554              		.loc 2 395 12 view .LVU1607
 5555 0004 141900E3 		movw	r1, #2324
 5556              	.LBE972:
 5557              	.LBE971:
 5558              		.loc 1 667 10 view .LVU1608
 5559 0008 006000E3 		movw	r6, #:lower16:Cur_addr
 5560              	.LBB978:
 5561              	.LBB973:
 395:Include/sys.h ****                    Cap_Cpt,
 5562              		.loc 2 395 12 view .LVU1609
 5563 000c 0000A0E3 		mov	r0, #0
 5564              	.LBE973:
 5565              	.LBE978:
 5566              		.loc 1 667 10 view .LVU1610
 5567 0010 0628A0E3 		mov	r2, #393216
 5568              	.LBB979:
 5569              	.LBB974:
 395:Include/sys.h ****                    Cap_Cpt,
 5570              		.loc 2 395 12 view .LVU1611
 5571 0014 051040E3 		movt	r1, 5
 5572              	.LBE974:
 5573              	.LBE979:
 5574              		.loc 1 667 10 view .LVU1612
 5575 0018 006040E3 		movt	r6, #:upper16:Cur_addr
 5576              	.LBB980:
 5577              	.LBB975:
ARM GAS  C:\Users\even\AppData\Local\Temp\ccu0RqlP.s 			page 153


 395:Include/sys.h ****                    Cap_Cpt,
 5578              		.loc 2 395 12 view .LVU1613
 5579 001c 0130A0E3 		mov	r3, #1
 5580 0020 0F0C40E3 		movt	r0, 3087
 5581              	.LBE975:
 5582              	.LBE980:
 5583              		.loc 1 667 10 view .LVU1614
 5584 0024 002086E5 		str	r2, [r6]
 668:Source/rme_benchmark.c **** 	//
 669:Source/rme_benchmark.c **** 	Retval=RME_Pgt_Crt(RME_BOOT_INIT_CPT,RME_BOOT_INIT_KOM,RME_BOOT_BENCH_PGT,
 5585              		.loc 1 669 2 is_stmt 1 view .LVU1615
 5586              	.LVL399:
 5587              	.LBB981:
 5588              	.LBI971:
 385:Include/sys.h ****                       cid_t Cap_Kom,
 5589              		.loc 2 385 7 view .LVU1616
 5590              	.LBB976:
 395:Include/sys.h ****                    Cap_Cpt,
 5591              		.loc 2 395 5 view .LVU1617
 395:Include/sys.h ****                    Cap_Cpt,
 5592              		.loc 2 395 12 is_stmt 0 view .LVU1618
 5593 0028 FEFFFFEB 		bl	RME_Svc
 5594              	.LVL400:
 5595 002c 001000E3 		movw	r1, #:lower16:.LC29
 5596              	.LBE976:
 5597              	.LBE981:
 5598              	.LBB982:
 5599              	.LBB983:
 5600              	.LBB984:
 5601              	.LBB985:
 222:Include/benchmark.h ****     return 0;
 5602              		.loc 3 222 5 discriminator 1 view .LVU1619
 5603 0030 012AA0E3 		mov	r2, #4096
 5604 0034 001040E3 		movt	r1, #:upper16:.LC29
 5605              	.LBE985:
 5606              	.LBE984:
 5607              	.LBE983:
 5608              	.LBE982:
 5609              	.LBB993:
 5610              	.LBB977:
 399:Include/sys.h **** }
 5611              		.loc 2 399 32 is_stmt 1 view .LVU1620
 5612              	.LVL401:
 399:Include/sys.h **** }
 5613              		.loc 2 399 32 is_stmt 0 view .LVU1621
 5614              	.LBE977:
 5615              	.LBE993:
 670:Source/rme_benchmark.c **** 				       Cur_addr,0x00000000U,RME_PGT_TOP,RME_PGT_SIZE_1M,RME_PGT_NUM_4K);
 671:Source/rme_benchmark.c **** 
 672:Source/rme_benchmark.c **** 	USR_DBG_S("\r\ncreate benchmark page table  retval= ");
 5616              		.loc 1 672 2 is_stmt 1 view .LVU1622
 5617              	.LBB994:
 5618              	.LBI982:
 368:Include/benchmark.h **** {
 5619              		.loc 3 368 7 view .LVU1623
 5620              	.LBB992:
 370:Include/benchmark.h **** 
ARM GAS  C:\Users\even\AppData\Local\Temp\ccu0RqlP.s 			page 154


 5621              		.loc 3 370 5 view .LVU1624
 372:Include/benchmark.h ****     {
 5622              		.loc 3 372 5 view .LVU1625
 372:Include/benchmark.h ****     {
 5623              		.loc 3 372 23 discriminator 1 view .LVU1626
 5624              	.LBB989:
 5625              	.LBB986:
 222:Include/benchmark.h ****     return 0;
 5626              		.loc 3 222 5 is_stmt 0 discriminator 1 view .LVU1627
 5627 0038 00204EE3 		movt	r2, 57344
 5628 003c FFE081E2 		add	lr, r1, #255
 5629              	.LVL402:
 5630              	.L468:
 222:Include/benchmark.h ****     return 0;
 5631              		.loc 3 222 5 discriminator 1 view .LVU1628
 5632              	.LBE986:
 5633              	.LBE989:
 374:Include/benchmark.h ****         {
 5634              		.loc 3 374 9 is_stmt 1 view .LVU1629
 374:Include/benchmark.h ****         {
 5635              		.loc 3 374 18 is_stmt 0 view .LVU1630
 5636 0040 D1C0D1E0 		ldrsb	ip, [r1], #1
 5637              	.LVL403:
 374:Include/benchmark.h ****         {
 5638              		.loc 3 374 11 view .LVU1631
 5639 0044 00005CE3 		cmp	ip, #0
 5640 0048 0500000A 		beq	.L466
 5641              	.L467:
 5642              	.LBB990:
 5643              	.LBB987:
 222:Include/benchmark.h ****     return 0;
 5644              		.loc 3 222 5 is_stmt 1 discriminator 1 view .LVU1632
 5645 004c 2C3092E5 		ldr	r3, [r2, #44]
 5646 0050 080013E3 		tst	r3, #8
 5647 0054 FCFFFF0A 		beq	.L467
 222:Include/benchmark.h ****     return 0;
 5648              		.loc 3 222 5 discriminator 2 view .LVU1633
 5649              	.LBE987:
 5650              	.LBE990:
 372:Include/benchmark.h ****     {
 5651              		.loc 3 372 23 is_stmt 0 discriminator 1 view .LVU1634
 5652 0058 0E0051E1 		cmp	r1, lr
 5653              	.LBB991:
 5654              	.LBB988:
 222:Include/benchmark.h ****     return 0;
 5655              		.loc 3 222 5 discriminator 2 view .LVU1635
 5656 005c 30C082E5 		str	ip, [r2, #48]
 222:Include/benchmark.h ****     return 0;
 5657              		.loc 3 222 5 is_stmt 1 view .LVU1636
 223:Include/benchmark.h **** }
 5658              		.loc 3 223 5 view .LVU1637
 5659              	.LBE988:
 5660              	.LBE991:
 372:Include/benchmark.h ****     {
 5661              		.loc 3 372 33 discriminator 2 view .LVU1638
 5662              	.LVL404:
 372:Include/benchmark.h ****     {
ARM GAS  C:\Users\even\AppData\Local\Temp\ccu0RqlP.s 			page 155


 5663              		.loc 3 372 23 discriminator 1 view .LVU1639
 5664 0060 F6FFFF1A 		bne	.L468
 5665              	.LVL405:
 5666              	.L466:
 387:Include/benchmark.h **** }
 5667              		.loc 3 387 5 view .LVU1640
 387:Include/benchmark.h **** }
 5668              		.loc 3 387 5 is_stmt 0 view .LVU1641
 5669              	.LBE992:
 5670              	.LBE994:
 673:Source/rme_benchmark.c **** 	USR_DBG_I(Retval);
 5671              		.loc 1 673 2 is_stmt 1 view .LVU1642
 5672              	.LBB995:
 5673              	.LBB996:
 458:Include/sys.h ****                    RME_PARAM_D0(Flag_Dst),
 5674              		.loc 2 458 12 is_stmt 0 view .LVU1643
 5675 0064 1F50A0E3 		mov	r5, #31
 5676              	.LBE996:
 5677              	.LBE995:
 674:Source/rme_benchmark.c **** 
 675:Source/rme_benchmark.c **** 	// add page to benchmark pgt
 676:Source/rme_benchmark.c **** 	for(Count=0U;Count<0x400U;Count++)
 5678              		.loc 1 676 11 view .LVU1644
 5679 0068 0040A0E3 		mov	r4, #0
 5680              	.LBB1000:
 5681              	.LBB997:
 458:Include/sys.h ****                    RME_PARAM_D0(Flag_Dst),
 5682              		.loc 2 458 12 view .LVU1645
 5683 006c 115040E3 		movt	r5, 17
 5684              	.LBE997:
 5685              	.LBE1000:
 673:Source/rme_benchmark.c **** 
 5686              		.loc 1 673 2 view .LVU1646
 5687 0070 FEFFFFEB 		bl	USR_DBG_I
 5688              	.LVL406:
 5689              		.loc 1 676 2 is_stmt 1 view .LVU1647
 5690              		.loc 1 676 20 discriminator 1 view .LVU1648
 5691              	.L469:
 677:Source/rme_benchmark.c **** 	{
 678:Source/rme_benchmark.c **** 			Retval=RME_Pgt_Add(RME_BOOT_BENCH_PGT,Count,RME_PGT_ALL_DYN,
 5692              		.loc 1 678 4 view .LVU1649
 5693              	.LBB1001:
 5694              	.LBI995:
 451:Include/sys.h ****                       ptr_t Pos_Dst,
 5695              		.loc 2 451 7 view .LVU1650
 5696              	.LBB998:
 458:Include/sys.h ****                    RME_PARAM_D0(Flag_Dst),
 5697              		.loc 2 458 5 view .LVU1651
 458:Include/sys.h ****                    RME_PARAM_D0(Flag_Dst),
 5698              		.loc 2 458 12 is_stmt 0 view .LVU1652
 5699 0074 012884E3 		orr	r2, r4, #65536
 5700 0078 091884E3 		orr	r1, r4, #589824
 5701 007c 0030A0E3 		mov	r3, #0
 5702 0080 0500A0E1 		mov	r0, r5
 5703              	.LBE998:
 5704              	.LBE1001:
 676:Source/rme_benchmark.c **** 	{
ARM GAS  C:\Users\even\AppData\Local\Temp\ccu0RqlP.s 			page 156


 5705              		.loc 1 676 33 discriminator 3 view .LVU1653
 5706 0084 014084E2 		add	r4, r4, #1
 5707              	.LVL407:
 5708              	.LBB1002:
 5709              	.LBB999:
 458:Include/sys.h ****                    RME_PARAM_D0(Flag_Dst),
 5710              		.loc 2 458 12 view .LVU1654
 5711 0088 FEFFFFEB 		bl	RME_Svc
 5712              	.LVL408:
 462:Include/sys.h **** }
 5713              		.loc 2 462 26 is_stmt 1 view .LVU1655
 462:Include/sys.h **** }
 5714              		.loc 2 462 26 is_stmt 0 view .LVU1656
 5715              	.LBE999:
 5716              	.LBE1002:
 676:Source/rme_benchmark.c **** 	{
 5717              		.loc 1 676 33 is_stmt 1 discriminator 3 view .LVU1657
 676:Source/rme_benchmark.c **** 	{
 5718              		.loc 1 676 20 discriminator 1 view .LVU1658
 5719 008c 010B54E3 		cmp	r4, #1024
 5720 0090 F7FFFF1A 		bne	.L469
 5721              	.LBB1003:
 5722              	.LBB1004:
 458:Include/sys.h ****                    RME_PARAM_D0(Flag_Dst),
 5723              		.loc 2 458 12 is_stmt 0 view .LVU1659
 5724 0094 0350A0E3 		mov	r5, #3
 5725 0098 115040E3 		movt	r5, 17
 5726              	.LVL409:
 5727              	.L470:
 458:Include/sys.h ****                    RME_PARAM_D0(Flag_Dst),
 5728              		.loc 2 458 12 view .LVU1660
 5729              	.LBE1004:
 5730              	.LBE1003:
 679:Source/rme_benchmark.c **** 											 RME_BOOT_INIT_PGT,
 680:Source/rme_benchmark.c **** 											 Count,
 681:Source/rme_benchmark.c **** 											 0);
 682:Source/rme_benchmark.c **** 			    /*USR_DBG_S("\r\nadd page to benchmark pgt  retval= ");
 683:Source/rme_benchmark.c **** 				USR_DBG_I(Retval);*/
 684:Source/rme_benchmark.c **** 	}
 685:Source/rme_benchmark.c **** 			/* Device memory 1, 512MiB 0x40000000 -> 0x40000000 */
 686:Source/rme_benchmark.c **** 	for(Count=0U;Count<0x200U;Count++)
 687:Source/rme_benchmark.c **** 	{
 688:Source/rme_benchmark.c **** 		    	Retval=RME_Pgt_Add(RME_BOOT_BENCH_PGT,(Count+0x400U),
 5731              		.loc 1 688 8 is_stmt 1 view .LVU1661
 5732              	.LBB1007:
 5733              	.LBI1003:
 451:Include/sys.h ****                       ptr_t Pos_Dst,
 5734              		.loc 2 451 7 view .LVU1662
 5735              	.LBB1005:
 458:Include/sys.h ****                    RME_PARAM_D0(Flag_Dst),
 5736              		.loc 2 458 5 view .LVU1663
 458:Include/sys.h ****                    RME_PARAM_D0(Flag_Dst),
 5737              		.loc 2 458 12 is_stmt 0 view .LVU1664
 5738 009c 012884E3 		orr	r2, r4, #65536
 5739 00a0 091884E3 		orr	r1, r4, #589824
 5740 00a4 0030A0E3 		mov	r3, #0
 5741 00a8 0500A0E1 		mov	r0, r5
ARM GAS  C:\Users\even\AppData\Local\Temp\ccu0RqlP.s 			page 157


 5742              	.LBE1005:
 5743              	.LBE1007:
 686:Source/rme_benchmark.c **** 	{
 5744              		.loc 1 686 20 discriminator 1 view .LVU1665
 5745 00ac 014084E2 		add	r4, r4, #1
 5746              	.LVL410:
 5747              	.LBB1008:
 5748              	.LBB1006:
 458:Include/sys.h ****                    RME_PARAM_D0(Flag_Dst),
 5749              		.loc 2 458 12 view .LVU1666
 5750 00b0 FEFFFFEB 		bl	RME_Svc
 5751              	.LVL411:
 462:Include/sys.h **** }
 5752              		.loc 2 462 26 is_stmt 1 view .LVU1667
 462:Include/sys.h **** }
 5753              		.loc 2 462 26 is_stmt 0 view .LVU1668
 5754              	.LBE1006:
 5755              	.LBE1008:
 686:Source/rme_benchmark.c **** 	{
 5756              		.loc 1 686 33 is_stmt 1 discriminator 3 view .LVU1669
 686:Source/rme_benchmark.c **** 	{
 5757              		.loc 1 686 20 discriminator 1 view .LVU1670
 5758 00b4 060C54E3 		cmp	r4, #1536
 5759 00b8 F7FFFF1A 		bne	.L470
 5760              	.LBB1009:
 5761              	.LBB1010:
 458:Include/sys.h ****                    RME_PARAM_D0(Flag_Dst),
 5762              		.loc 2 458 12 is_stmt 0 view .LVU1671
 5763 00bc 0350A0E3 		mov	r5, #3
 5764 00c0 115040E3 		movt	r5, 17
 5765              	.L471:
 5766              	.LVL412:
 458:Include/sys.h ****                    RME_PARAM_D0(Flag_Dst),
 5767              		.loc 2 458 12 view .LVU1672
 5768              	.LBE1010:
 5769              	.LBE1009:
 689:Source/rme_benchmark.c **** 											 RME_PGT_READ|RME_PGT_WRITE,
 690:Source/rme_benchmark.c **** 											 RME_BOOT_INIT_PGT,
 691:Source/rme_benchmark.c **** 											 (Count+0x400U),
 692:Source/rme_benchmark.c **** 											 0);
 693:Source/rme_benchmark.c **** 				/*USR_DBG_S("\r\nadd page to benchmark pgt  retval= ");
 694:Source/rme_benchmark.c **** 							USR_DBG_I(Retval);*/
 695:Source/rme_benchmark.c **** 	}
 696:Source/rme_benchmark.c **** 
 697:Source/rme_benchmark.c **** 		    /* Device memory 2, 512MiB 0x60000000 -> 0xE0000000 */
 698:Source/rme_benchmark.c **** 	for(Count=0U;Count<0x200U;Count++)
 699:Source/rme_benchmark.c **** 	{
 700:Source/rme_benchmark.c **** 		    	Retval=RME_Pgt_Add(RME_BOOT_BENCH_PGT,(Count+0x600U),
 5770              		.loc 1 700 8 is_stmt 1 view .LVU1673
 5771              	.LBB1013:
 5772              	.LBI1009:
 451:Include/sys.h ****                       ptr_t Pos_Dst,
 5773              		.loc 2 451 7 view .LVU1674
 5774              	.LBB1011:
 458:Include/sys.h ****                    RME_PARAM_D0(Flag_Dst),
 5775              		.loc 2 458 5 view .LVU1675
 458:Include/sys.h ****                    RME_PARAM_D0(Flag_Dst),
ARM GAS  C:\Users\even\AppData\Local\Temp\ccu0RqlP.s 			page 158


 5776              		.loc 2 458 12 is_stmt 0 view .LVU1676
 5777 00c4 012884E3 		orr	r2, r4, #65536
 5778 00c8 091884E3 		orr	r1, r4, #589824
 5779 00cc 0030A0E3 		mov	r3, #0
 5780 00d0 0500A0E1 		mov	r0, r5
 5781              	.LBE1011:
 5782              	.LBE1013:
 698:Source/rme_benchmark.c **** 	{
 5783              		.loc 1 698 20 discriminator 1 view .LVU1677
 5784 00d4 014084E2 		add	r4, r4, #1
 5785              	.LVL413:
 5786              	.LBB1014:
 5787              	.LBB1012:
 458:Include/sys.h ****                    RME_PARAM_D0(Flag_Dst),
 5788              		.loc 2 458 12 view .LVU1678
 5789 00d8 FEFFFFEB 		bl	RME_Svc
 5790              	.LVL414:
 462:Include/sys.h **** }
 5791              		.loc 2 462 26 is_stmt 1 view .LVU1679
 462:Include/sys.h **** }
 5792              		.loc 2 462 26 is_stmt 0 view .LVU1680
 5793              	.LBE1012:
 5794              	.LBE1014:
 698:Source/rme_benchmark.c **** 	{
 5795              		.loc 1 698 33 is_stmt 1 discriminator 3 view .LVU1681
 698:Source/rme_benchmark.c **** 	{
 5796              		.loc 1 698 20 discriminator 1 view .LVU1682
 5797 00dc 020B54E3 		cmp	r4, #2048
 5798 00e0 F7FFFF1A 		bne	.L471
 701:Source/rme_benchmark.c **** 		    								 RME_PGT_READ|RME_PGT_WRITE,
 702:Source/rme_benchmark.c **** 											 RME_BOOT_INIT_PGT,
 703:Source/rme_benchmark.c **** 											 (Count+0x600U),
 704:Source/rme_benchmark.c **** 											 0);
 705:Source/rme_benchmark.c **** 				/*USR_DBG_S("\r\nadd page to benchmark pgt  retval= ");
 706:Source/rme_benchmark.c **** 										USR_DBG_I(Retval);*/
 707:Source/rme_benchmark.c **** 	}
 708:Source/rme_benchmark.c **** 
 709:Source/rme_benchmark.c **** 	/*USR_DBG_S("\r\nFirst section's first entry ");
 710:Source/rme_benchmark.c **** 	USR_DBG_H(RME_A7A_REG(Cur_addr+RME_KOM_VA_BASE));
 711:Source/rme_benchmark.c **** 	USR_DBG_S(" @ ");
 712:Source/rme_benchmark.c **** 	USR_DBG_H(Cur_addr+RME_KOM_VA_BASE);
 713:Source/rme_benchmark.c **** 
 714:Source/rme_benchmark.c **** 	USR_DBG_S("\r\nFirst section's 0x080th entry ");
 715:Source/rme_benchmark.c **** 	USR_DBG_H(RME_A7A_REG(Cur_addr+0x080*RME_WORD_BYTE+RME_KOM_VA_BASE));
 716:Source/rme_benchmark.c **** 	USR_DBG_S(" @ ");
 717:Source/rme_benchmark.c **** 	USR_DBG_H(Cur_addr+0x080*RME_WORD_BYTE+RME_KOM_VA_BASE);
 718:Source/rme_benchmark.c **** 
 719:Source/rme_benchmark.c **** 	USR_DBG_S("\r\nSecond section's first entry ");
 720:Source/rme_benchmark.c **** 	USR_DBG_H(RME_A7A_REG(Cur_addr+0x400*RME_WORD_BYTE+RME_KOM_VA_BASE));
 721:Source/rme_benchmark.c **** 	USR_DBG_S(" @ ");
 722:Source/rme_benchmark.c **** 	USR_DBG_H(Cur_addr+0x400*RME_WORD_BYTE+RME_KOM_VA_BASE);
 723:Source/rme_benchmark.c **** 
 724:Source/rme_benchmark.c **** 	USR_DBG_S("\r\nThird section's first entry ");
 725:Source/rme_benchmark.c **** 	USR_DBG_H(RME_A7A_REG(Cur_addr+0x600*RME_WORD_BYTE+RME_KOM_VA_BASE));
 726:Source/rme_benchmark.c **** 	USR_DBG_S(" @ ");
 727:Source/rme_benchmark.c **** 	USR_DBG_H(Cur_addr+0x600*RME_WORD_BYTE+RME_KOM_VA_BASE);
 728:Source/rme_benchmark.c **** 
ARM GAS  C:\Users\even\AppData\Local\Temp\ccu0RqlP.s 			page 159


 729:Source/rme_benchmark.c **** 	/*USR_DBG_S("\r\nKernel pgtbl's 80th entry ");
 730:Source/rme_benchmark.c **** 	USR_DBG_H(RME_A7A_REG(((ptr_t)(&__RME_A7A_Kern_Pgt))+0x080*RME_WORD_BYTE));
 731:Source/rme_benchmark.c **** 	USR_DBG_S(" @ ");
 732:Source/rme_benchmark.c **** 	USR_DBG_H(((ptr_t)(&__RME_A7A_Kern_Pgt))+0x080*RME_WORD_BYTE);*/
 733:Source/rme_benchmark.c **** 
 734:Source/rme_benchmark.c **** 	//
 735:Source/rme_benchmark.c **** 	Retval=RME_Prc_Crt(RME_BOOT_INIT_CPT,RME_BOOT_BENCH_PRC,RME_BOOT_INIT_CPT,
 5799              		.loc 1 735 2 view .LVU1683
 5800              	.LVL415:
 5801              	.LBB1015:
 5802              	.LBI1015:
 282:Include/sys.h ****                       cid_t Cap_Prc,
 5803              		.loc 2 282 7 view .LVU1684
 5804              	.LBB1016:
 287:Include/sys.h ****                    Cap_Cpt_Crt,
 5805              		.loc 2 287 5 view .LVU1685
 287:Include/sys.h ****                    Cap_Cpt_Crt,
 5806              		.loc 2 287 12 is_stmt 0 view .LVU1686
 5807 00e4 0020A0E3 		mov	r2, #0
 5808 00e8 1110A0E3 		mov	r1, #17
 5809 00ec 0930A0E3 		mov	r3, #9
 5810 00f0 1508A0E3 		mov	r0, #1376256
 5811 00f4 FEFFFFEB 		bl	RME_Svc
 5812              	.LVL416:
 5813 00f8 001000E3 		movw	r1, #:lower16:.LC22
 5814              	.LBE1016:
 5815              	.LBE1015:
 5816              	.LBB1018:
 5817              	.LBB1019:
 5818              	.LBB1020:
 5819              	.LBB1021:
 222:Include/benchmark.h ****     return 0;
 5820              		.loc 3 222 5 discriminator 1 view .LVU1687
 5821 00fc 012AA0E3 		mov	r2, #4096
 5822 0100 001040E3 		movt	r1, #:upper16:.LC22
 5823              	.LBE1021:
 5824              	.LBE1020:
 5825              	.LBE1019:
 5826              	.LBE1018:
 5827              	.LBB1029:
 5828              	.LBB1017:
 291:Include/sys.h **** }
 5829              		.loc 2 291 28 is_stmt 1 view .LVU1688
 5830              	.LVL417:
 291:Include/sys.h **** }
 5831              		.loc 2 291 28 is_stmt 0 view .LVU1689
 5832              	.LBE1017:
 5833              	.LBE1029:
 736:Source/rme_benchmark.c **** 		    			RME_BOOT_BENCH_PGT);
 737:Source/rme_benchmark.c **** 	USR_DBG_S("\r\n create benchmark prc  retval= ");
 5834              		.loc 1 737 2 is_stmt 1 view .LVU1690
 5835              	.LBB1030:
 5836              	.LBI1018:
 368:Include/benchmark.h **** {
 5837              		.loc 3 368 7 view .LVU1691
 5838              	.LBB1028:
 370:Include/benchmark.h **** 
ARM GAS  C:\Users\even\AppData\Local\Temp\ccu0RqlP.s 			page 160


 5839              		.loc 3 370 5 view .LVU1692
 372:Include/benchmark.h ****     {
 5840              		.loc 3 372 5 view .LVU1693
 372:Include/benchmark.h ****     {
 5841              		.loc 3 372 23 discriminator 1 view .LVU1694
 5842              	.LBB1025:
 5843              	.LBB1022:
 222:Include/benchmark.h ****     return 0;
 5844              		.loc 3 222 5 is_stmt 0 discriminator 1 view .LVU1695
 5845 0104 00204EE3 		movt	r2, 57344
 5846 0108 FFE081E2 		add	lr, r1, #255
 5847              	.LVL418:
 5848              	.L474:
 222:Include/benchmark.h ****     return 0;
 5849              		.loc 3 222 5 discriminator 1 view .LVU1696
 5850              	.LBE1022:
 5851              	.LBE1025:
 374:Include/benchmark.h ****         {
 5852              		.loc 3 374 9 is_stmt 1 view .LVU1697
 374:Include/benchmark.h ****         {
 5853              		.loc 3 374 18 is_stmt 0 view .LVU1698
 5854 010c D1C0D1E0 		ldrsb	ip, [r1], #1
 5855              	.LVL419:
 374:Include/benchmark.h ****         {
 5856              		.loc 3 374 11 view .LVU1699
 5857 0110 00005CE3 		cmp	ip, #0
 5858 0114 0500000A 		beq	.L472
 5859              	.L473:
 5860              	.LBB1026:
 5861              	.LBB1023:
 222:Include/benchmark.h ****     return 0;
 5862              		.loc 3 222 5 is_stmt 1 discriminator 1 view .LVU1700
 5863 0118 2C3092E5 		ldr	r3, [r2, #44]
 5864 011c 080013E3 		tst	r3, #8
 5865 0120 FCFFFF0A 		beq	.L473
 222:Include/benchmark.h ****     return 0;
 5866              		.loc 3 222 5 discriminator 2 view .LVU1701
 5867              	.LBE1023:
 5868              	.LBE1026:
 372:Include/benchmark.h ****     {
 5869              		.loc 3 372 23 is_stmt 0 discriminator 1 view .LVU1702
 5870 0124 0E0051E1 		cmp	r1, lr
 5871              	.LBB1027:
 5872              	.LBB1024:
 222:Include/benchmark.h ****     return 0;
 5873              		.loc 3 222 5 discriminator 2 view .LVU1703
 5874 0128 30C082E5 		str	ip, [r2, #48]
 222:Include/benchmark.h ****     return 0;
 5875              		.loc 3 222 5 is_stmt 1 view .LVU1704
 223:Include/benchmark.h **** }
 5876              		.loc 3 223 5 view .LVU1705
 5877              	.LBE1024:
 5878              	.LBE1027:
 372:Include/benchmark.h ****     {
 5879              		.loc 3 372 33 discriminator 2 view .LVU1706
 5880              	.LVL420:
 372:Include/benchmark.h ****     {
ARM GAS  C:\Users\even\AppData\Local\Temp\ccu0RqlP.s 			page 161


 5881              		.loc 3 372 23 discriminator 1 view .LVU1707
 5882 012c F6FFFF1A 		bne	.L474
 5883              	.LVL421:
 5884              	.L472:
 387:Include/benchmark.h **** }
 5885              		.loc 3 387 5 view .LVU1708
 387:Include/benchmark.h **** }
 5886              		.loc 3 387 5 is_stmt 0 view .LVU1709
 5887              	.LBE1028:
 5888              	.LBE1030:
 738:Source/rme_benchmark.c **** 	USR_DBG_I(Retval);
 5889              		.loc 1 738 2 is_stmt 1 view .LVU1710
 5890 0130 FEFFFFEB 		bl	USR_DBG_I
 5891              	.LVL422:
 739:Source/rme_benchmark.c **** 
 740:Source/rme_benchmark.c **** 
 741:Source/rme_benchmark.c **** 	//
 742:Source/rme_benchmark.c **** 	//0x00009000U
 743:Source/rme_benchmark.c **** 	Retval=RME_Inv_Crt(RME_BOOT_INIT_CPT,
 5892              		.loc 1 743 2 view .LVU1711
 5893              	.LBB1031:
 5894              	.LBI1031:
 466:Include/sys.h ****                       cid_t Cap_Kom,
 5895              		.loc 2 466 7 view .LVU1712
 5896              	.LBB1032:
 472:Include/sys.h ****                    Cap_Cpt,
 5897              		.loc 2 472 5 view .LVU1713
 5898              	.LBE1032:
 5899              	.LBE1031:
 5900              		.loc 1 743 9 is_stmt 0 view .LVU1714
 5901 0134 003096E5 		ldr	r3, [r6]
 5902              	.LBB1035:
 5903              	.LBB1033:
 472:Include/sys.h ****                    Cap_Cpt,
 5904              		.loc 2 472 12 view .LVU1715
 5905 0138 1210A0E3 		mov	r1, #18
 5906 013c 1120A0E3 		mov	r2, #17
 5907 0140 051040E3 		movt	r1, 5
 5908 0144 1F08A0E3 		mov	r0, #2031616
 5909 0148 013883E2 		add	r3, r3, #65536
 5910              	.LVL423:
 472:Include/sys.h ****                    Cap_Cpt,
 5911              		.loc 2 472 12 view .LVU1716
 5912 014c FEFFFFEB 		bl	RME_Svc
 5913              	.LVL424:
 472:Include/sys.h ****                    Cap_Cpt,
 5914              		.loc 2 472 12 view .LVU1717
 5915 0150 001000E3 		movw	r1, #:lower16:.LC30
 5916              	.LBE1033:
 5917              	.LBE1035:
 5918              	.LBB1036:
 5919              	.LBB1037:
 5920              	.LBB1038:
 5921              	.LBB1039:
 222:Include/benchmark.h ****     return 0;
 5922              		.loc 3 222 5 discriminator 1 view .LVU1718
 5923 0154 012AA0E3 		mov	r2, #4096
ARM GAS  C:\Users\even\AppData\Local\Temp\ccu0RqlP.s 			page 162


 5924 0158 001040E3 		movt	r1, #:upper16:.LC30
 5925              	.LBE1039:
 5926              	.LBE1038:
 5927              	.LBE1037:
 5928              	.LBE1036:
 5929              	.LBB1047:
 5930              	.LBB1034:
 476:Include/sys.h **** }
 5931              		.loc 2 476 26 is_stmt 1 view .LVU1719
 5932              	.LVL425:
 476:Include/sys.h **** }
 5933              		.loc 2 476 26 is_stmt 0 view .LVU1720
 5934              	.LBE1034:
 5935              	.LBE1047:
 744:Source/rme_benchmark.c **** 			           RME_BOOT_INIT_KOM,
 745:Source/rme_benchmark.c **** 					   RME_BOOT_BENCH_INV,
 746:Source/rme_benchmark.c **** 					   RME_BOOT_BENCH_PRC,
 747:Source/rme_benchmark.c **** 					   Cur_addr+0x10000);
 748:Source/rme_benchmark.c **** 	USR_DBG_S("\r\n create benchmark thd  retval= ");
 5936              		.loc 1 748 2 is_stmt 1 view .LVU1721
 5937              	.LBB1048:
 5938              	.LBI1036:
 368:Include/benchmark.h **** {
 5939              		.loc 3 368 7 view .LVU1722
 5940              	.LBB1046:
 370:Include/benchmark.h **** 
 5941              		.loc 3 370 5 view .LVU1723
 372:Include/benchmark.h ****     {
 5942              		.loc 3 372 5 view .LVU1724
 372:Include/benchmark.h ****     {
 5943              		.loc 3 372 23 discriminator 1 view .LVU1725
 5944              	.LBB1043:
 5945              	.LBB1040:
 222:Include/benchmark.h ****     return 0;
 5946              		.loc 3 222 5 is_stmt 0 discriminator 1 view .LVU1726
 5947 015c 00204EE3 		movt	r2, 57344
 5948 0160 FFE081E2 		add	lr, r1, #255
 5949              	.LVL426:
 5950              	.L477:
 222:Include/benchmark.h ****     return 0;
 5951              		.loc 3 222 5 discriminator 1 view .LVU1727
 5952              	.LBE1040:
 5953              	.LBE1043:
 374:Include/benchmark.h ****         {
 5954              		.loc 3 374 9 is_stmt 1 view .LVU1728
 374:Include/benchmark.h ****         {
 5955              		.loc 3 374 18 is_stmt 0 view .LVU1729
 5956 0164 D1C0D1E0 		ldrsb	ip, [r1], #1
 5957              	.LVL427:
 374:Include/benchmark.h ****         {
 5958              		.loc 3 374 11 view .LVU1730
 5959 0168 00005CE3 		cmp	ip, #0
 5960 016c 0500000A 		beq	.L475
 5961              	.L476:
 5962              	.LBB1044:
 5963              	.LBB1041:
 222:Include/benchmark.h ****     return 0;
ARM GAS  C:\Users\even\AppData\Local\Temp\ccu0RqlP.s 			page 163


 5964              		.loc 3 222 5 is_stmt 1 discriminator 1 view .LVU1731
 5965 0170 2C3092E5 		ldr	r3, [r2, #44]
 5966 0174 080013E3 		tst	r3, #8
 5967 0178 FCFFFF0A 		beq	.L476
 222:Include/benchmark.h ****     return 0;
 5968              		.loc 3 222 5 discriminator 2 view .LVU1732
 5969              	.LBE1041:
 5970              	.LBE1044:
 372:Include/benchmark.h ****     {
 5971              		.loc 3 372 23 is_stmt 0 discriminator 1 view .LVU1733
 5972 017c 01005EE1 		cmp	lr, r1
 5973              	.LBB1045:
 5974              	.LBB1042:
 222:Include/benchmark.h ****     return 0;
 5975              		.loc 3 222 5 discriminator 2 view .LVU1734
 5976 0180 30C082E5 		str	ip, [r2, #48]
 222:Include/benchmark.h ****     return 0;
 5977              		.loc 3 222 5 is_stmt 1 view .LVU1735
 223:Include/benchmark.h **** }
 5978              		.loc 3 223 5 view .LVU1736
 5979              	.LBE1042:
 5980              	.LBE1045:
 372:Include/benchmark.h ****     {
 5981              		.loc 3 372 33 discriminator 2 view .LVU1737
 5982              	.LVL428:
 372:Include/benchmark.h ****     {
 5983              		.loc 3 372 23 discriminator 1 view .LVU1738
 5984 0184 F6FFFF1A 		bne	.L477
 5985              	.LVL429:
 5986              	.L475:
 387:Include/benchmark.h **** }
 5987              		.loc 3 387 5 view .LVU1739
 387:Include/benchmark.h **** }
 5988              		.loc 3 387 5 is_stmt 0 view .LVU1740
 5989              	.LBE1046:
 5990              	.LBE1048:
 749:Source/rme_benchmark.c **** 	USR_DBG_I(Retval);
 5991              		.loc 1 749 2 is_stmt 1 view .LVU1741
 5992 0188 FEFFFFEB 		bl	USR_DBG_I
 5993              	.LVL430:
 750:Source/rme_benchmark.c **** 	//
 751:Source/rme_benchmark.c **** 	Retval=RME_Inv_Set(RME_BOOT_BENCH_INV,
 5994              		.loc 1 751 2 view .LVU1742
 5995              	.LBB1049:
 5996              	.LBI1049:
 479:Include/sys.h ****                       ptr_t Entry,
 5997              		.loc 2 479 7 view .LVU1743
 5998              	.LBB1050:
 484:Include/sys.h ****                    0U,
 5999              		.loc 2 484 5 view .LVU1744
 484:Include/sys.h ****                    0U,
 6000              		.loc 2 484 12 is_stmt 0 view .LVU1745
 6001 018c 002000E3 		movw	r2, #:lower16:RME_Inv_test_fuction
 6002 0190 1210A0E3 		mov	r1, #18
 6003 0194 002040E3 		movt	r2, #:upper16:RME_Inv_test_fuction
 6004 0198 30319FE5 		ldr	r3, .L530
 6005              	.LVL431:
ARM GAS  C:\Users\even\AppData\Local\Temp\ccu0RqlP.s 			page 164


 484:Include/sys.h ****                    0U,
 6006              		.loc 2 484 12 view .LVU1746
 6007 019c 2108A0E3 		mov	r0, #2162688
 6008 01a0 FEFFFFEB 		bl	RME_Svc
 6009              	.LVL432:
 484:Include/sys.h ****                    0U,
 6010              		.loc 2 484 12 view .LVU1747
 6011 01a4 001000E3 		movw	r1, #:lower16:.LC31
 6012              	.LBE1050:
 6013              	.LBE1049:
 6014              	.LBB1052:
 6015              	.LBB1053:
 6016              	.LBB1054:
 6017              	.LBB1055:
 222:Include/benchmark.h ****     return 0;
 6018              		.loc 3 222 5 discriminator 1 view .LVU1748
 6019 01a8 012AA0E3 		mov	r2, #4096
 6020 01ac 001040E3 		movt	r1, #:upper16:.LC31
 6021              	.LBE1055:
 6022              	.LBE1054:
 6023              	.LBE1053:
 6024              	.LBE1052:
 6025              	.LBB1063:
 6026              	.LBB1051:
 488:Include/sys.h **** }
 6027              		.loc 2 488 26 is_stmt 1 view .LVU1749
 6028              	.LVL433:
 488:Include/sys.h **** }
 6029              		.loc 2 488 26 is_stmt 0 view .LVU1750
 6030              	.LBE1051:
 6031              	.LBE1063:
 752:Source/rme_benchmark.c **** 					    (ptr_t)&RME_Inv_test_fuction,
 753:Source/rme_benchmark.c **** 						(ptr_t)&RME_Stack3[2000],
 754:Source/rme_benchmark.c **** 						0);
 755:Source/rme_benchmark.c **** 	USR_DBG_S("\r\n create benchmark INV  retval= ");
 6032              		.loc 1 755 2 is_stmt 1 view .LVU1751
 6033              	.LBB1064:
 6034              	.LBI1052:
 368:Include/benchmark.h **** {
 6035              		.loc 3 368 7 view .LVU1752
 6036              	.LBB1062:
 370:Include/benchmark.h **** 
 6037              		.loc 3 370 5 view .LVU1753
 372:Include/benchmark.h ****     {
 6038              		.loc 3 372 5 view .LVU1754
 372:Include/benchmark.h ****     {
 6039              		.loc 3 372 23 discriminator 1 view .LVU1755
 6040              	.LBB1059:
 6041              	.LBB1056:
 222:Include/benchmark.h ****     return 0;
 6042              		.loc 3 222 5 is_stmt 0 discriminator 1 view .LVU1756
 6043 01b0 00204EE3 		movt	r2, 57344
 6044 01b4 FFE081E2 		add	lr, r1, #255
 6045              	.LVL434:
 6046              	.L480:
 222:Include/benchmark.h ****     return 0;
 6047              		.loc 3 222 5 discriminator 1 view .LVU1757
ARM GAS  C:\Users\even\AppData\Local\Temp\ccu0RqlP.s 			page 165


 6048              	.LBE1056:
 6049              	.LBE1059:
 374:Include/benchmark.h ****         {
 6050              		.loc 3 374 9 is_stmt 1 view .LVU1758
 374:Include/benchmark.h ****         {
 6051              		.loc 3 374 18 is_stmt 0 view .LVU1759
 6052 01b8 D1C0D1E0 		ldrsb	ip, [r1], #1
 6053              	.LVL435:
 374:Include/benchmark.h ****         {
 6054              		.loc 3 374 11 view .LVU1760
 6055 01bc 00005CE3 		cmp	ip, #0
 6056 01c0 0500000A 		beq	.L478
 6057              	.L479:
 6058              	.LBB1060:
 6059              	.LBB1057:
 222:Include/benchmark.h ****     return 0;
 6060              		.loc 3 222 5 is_stmt 1 discriminator 1 view .LVU1761
 6061 01c4 2C3092E5 		ldr	r3, [r2, #44]
 6062 01c8 080013E3 		tst	r3, #8
 6063 01cc FCFFFF0A 		beq	.L479
 222:Include/benchmark.h ****     return 0;
 6064              		.loc 3 222 5 discriminator 2 view .LVU1762
 6065              	.LBE1057:
 6066              	.LBE1060:
 372:Include/benchmark.h ****     {
 6067              		.loc 3 372 23 is_stmt 0 discriminator 1 view .LVU1763
 6068 01d0 01005EE1 		cmp	lr, r1
 6069              	.LBB1061:
 6070              	.LBB1058:
 222:Include/benchmark.h ****     return 0;
 6071              		.loc 3 222 5 discriminator 2 view .LVU1764
 6072 01d4 30C082E5 		str	ip, [r2, #48]
 222:Include/benchmark.h ****     return 0;
 6073              		.loc 3 222 5 is_stmt 1 view .LVU1765
 223:Include/benchmark.h **** }
 6074              		.loc 3 223 5 view .LVU1766
 6075              	.LBE1058:
 6076              	.LBE1061:
 372:Include/benchmark.h ****     {
 6077              		.loc 3 372 33 discriminator 2 view .LVU1767
 6078              	.LVL436:
 372:Include/benchmark.h ****     {
 6079              		.loc 3 372 23 discriminator 1 view .LVU1768
 6080 01d8 F6FFFF1A 		bne	.L480
 6081              	.LVL437:
 6082              	.L478:
 387:Include/benchmark.h **** }
 6083              		.loc 3 387 5 view .LVU1769
 387:Include/benchmark.h **** }
 6084              		.loc 3 387 5 is_stmt 0 view .LVU1770
 6085              	.LBE1062:
 6086              	.LBE1064:
 756:Source/rme_benchmark.c **** 	USR_DBG_I(Retval);
 6087              		.loc 1 756 2 is_stmt 1 view .LVU1771
 6088 01dc FEFFFFEB 		bl	USR_DBG_I
 6089              	.LVL438:
 757:Source/rme_benchmark.c **** 	start=get_time();
ARM GAS  C:\Users\even\AppData\Local\Temp\ccu0RqlP.s 			page 166


 6090              		.loc 1 757 2 view .LVU1772
 6091              	.LBB1065:
 6092              	.LBI1065:
 391:Include/benchmark.h **** {
 6093              		.loc 3 391 7 view .LVU1773
 6094              	.LBB1066:
 393:Include/benchmark.h **** 	temp=RME_A7A_REG(&RME_A7A_GTWD_GTCR0);
 6095              		.loc 3 393 2 view .LVU1774
 394:Include/benchmark.h **** 	return temp;
 6096              		.loc 3 394 2 view .LVU1775
 394:Include/benchmark.h **** 	return temp;
 6097              		.loc 3 394 6 is_stmt 0 view .LVU1776
 6098 01e0 0030A0E3 		mov	r3, #0
 6099              	.LBE1066:
 6100              	.LBE1065:
 6101              		.loc 1 757 7 discriminator 1 view .LVU1777
 6102 01e4 005000E3 		movw	r5, #:lower16:start
 6103              	.LBB1069:
 6104              	.LBB1067:
 394:Include/benchmark.h **** 	return temp;
 6105              		.loc 3 394 6 view .LVU1778
 6106 01e8 F0384FE3 		movt	r3, 63728
 6107              	.LBE1067:
 6108              	.LBE1069:
 6109              		.loc 1 757 7 discriminator 1 view .LVU1779
 6110 01ec 104702E3 		movw	r4, #10000
 6111              	.LBB1070:
 6112              	.LBB1068:
 394:Include/benchmark.h **** 	return temp;
 6113              		.loc 3 394 6 view .LVU1780
 6114 01f0 003293E5 		ldr	r3, [r3, #512]
 6115              	.LVL439:
 395:Include/benchmark.h ****     /*USR_DBG_S("\r\n time=");
 6116              		.loc 3 395 2 is_stmt 1 view .LVU1781
 395:Include/benchmark.h ****     /*USR_DBG_S("\r\n time=");
 6117              		.loc 3 395 2 is_stmt 0 view .LVU1782
 6118              	.LBE1068:
 6119              	.LBE1070:
 6120              		.loc 1 757 7 discriminator 1 view .LVU1783
 6121 01f4 005040E3 		movt	r5, #:upper16:start
 6122 01f8 003085E5 		str	r3, [r5]
 758:Source/rme_benchmark.c **** 	for(int Count=0;Count<10000;Count++)
 6123              		.loc 1 758 2 is_stmt 1 view .LVU1784
 6124              	.LBB1071:
 6125              		.loc 1 758 6 view .LVU1785
 6126              	.LVL440:
 6127              		.loc 1 758 23 discriminator 1 view .LVU1786
 6128              	.L481:
 759:Source/rme_benchmark.c **** 	{
 760:Source/rme_benchmark.c **** 		//
 761:Source/rme_benchmark.c **** 		Retval=RME_Inv_Act(RME_BOOT_BENCH_INV,0,0);
 6129              		.loc 1 761 3 view .LVU1787
 6130              		.loc 1 761 10 is_stmt 0 view .LVU1788
 6131 01fc 0020A0E3 		mov	r2, #0
 6132 0200 1200A0E3 		mov	r0, #18
 6133 0204 0210A0E1 		mov	r1, r2
 6134 0208 FEFFFFEB 		bl	RME_Inv_Act
ARM GAS  C:\Users\even\AppData\Local\Temp\ccu0RqlP.s 			page 167


 6135              	.LVL441:
 758:Source/rme_benchmark.c **** 	for(int Count=0;Count<10000;Count++)
 6136              		.loc 1 758 35 is_stmt 1 discriminator 3 view .LVU1789
 758:Source/rme_benchmark.c **** 	for(int Count=0;Count<10000;Count++)
 6137              		.loc 1 758 23 discriminator 1 view .LVU1790
 6138 020c 014054E2 		subs	r4, r4, #1
 6139 0210 F9FFFF1A 		bne	.L481
 6140              	.LBE1071:
 762:Source/rme_benchmark.c **** 		/*USR_DBG_S("\r\n  RME_Inv_Act  retval= ");
 763:Source/rme_benchmark.c **** 		USR_DBG_I(Retval);*/
 764:Source/rme_benchmark.c **** 	}
 765:Source/rme_benchmark.c **** 	end=get_time();
 6141              		.loc 1 765 2 view .LVU1791
 6142              	.LBB1072:
 6143              	.LBI1072:
 391:Include/benchmark.h **** {
 6144              		.loc 3 391 7 view .LVU1792
 6145              	.LBB1073:
 393:Include/benchmark.h **** 	temp=RME_A7A_REG(&RME_A7A_GTWD_GTCR0);
 6146              		.loc 3 393 2 view .LVU1793
 394:Include/benchmark.h **** 	return temp;
 6147              		.loc 3 394 2 view .LVU1794
 394:Include/benchmark.h **** 	return temp;
 6148              		.loc 3 394 6 is_stmt 0 view .LVU1795
 6149 0214 0030A0E3 		mov	r3, #0
 6150 0218 001000E3 		movw	r1, #:lower16:.LC32
 6151 021c F0384FE3 		movt	r3, 63728
 6152 0220 001040E3 		movt	r1, #:upper16:.LC32
 6153 0224 003293E5 		ldr	r3, [r3, #512]
 6154              	.LVL442:
 395:Include/benchmark.h ****     /*USR_DBG_S("\r\n time=");
 6155              		.loc 3 395 2 is_stmt 1 view .LVU1796
 395:Include/benchmark.h ****     /*USR_DBG_S("\r\n time=");
 6156              		.loc 3 395 2 is_stmt 0 view .LVU1797
 6157              	.LBE1073:
 6158              	.LBE1072:
 6159              	.LBB1074:
 6160              	.LBB1075:
 6161              	.LBB1076:
 6162              	.LBB1077:
 222:Include/benchmark.h ****     return 0;
 6163              		.loc 3 222 5 discriminator 1 view .LVU1798
 6164 0228 012AA0E3 		mov	r2, #4096
 6165              	.LBE1077:
 6166              	.LBE1076:
 6167              	.LBE1075:
 6168              	.LBE1074:
 6169              		.loc 1 765 5 discriminator 1 view .LVU1799
 6170 022c 004000E3 		movw	r4, #:lower16:end
 6171              	.LBB1086:
 6172              	.LBB1084:
 6173              	.LBB1081:
 6174              	.LBB1078:
 222:Include/benchmark.h ****     return 0;
 6175              		.loc 3 222 5 discriminator 1 view .LVU1800
 6176 0230 00204EE3 		movt	r2, 57344
 6177 0234 FFC081E2 		add	ip, r1, #255
ARM GAS  C:\Users\even\AppData\Local\Temp\ccu0RqlP.s 			page 168


 6178              	.LBE1078:
 6179              	.LBE1081:
 6180              	.LBE1084:
 6181              	.LBE1086:
 6182              		.loc 1 765 5 discriminator 1 view .LVU1801
 6183 0238 004040E3 		movt	r4, #:upper16:end
 6184 023c 003084E5 		str	r3, [r4]
 766:Source/rme_benchmark.c **** 	USR_DBG_S("\r\n inv 10000 time  = ");
 6185              		.loc 1 766 2 is_stmt 1 view .LVU1802
 6186              	.LVL443:
 6187              	.LBB1087:
 6188              	.LBI1074:
 368:Include/benchmark.h **** {
 6189              		.loc 3 368 7 view .LVU1803
 6190              	.LBB1085:
 370:Include/benchmark.h **** 
 6191              		.loc 3 370 5 view .LVU1804
 372:Include/benchmark.h ****     {
 6192              		.loc 3 372 5 view .LVU1805
 372:Include/benchmark.h ****     {
 6193              		.loc 3 372 23 discriminator 1 view .LVU1806
 6194              	.L484:
 374:Include/benchmark.h ****         {
 6195              		.loc 3 374 9 view .LVU1807
 374:Include/benchmark.h ****         {
 6196              		.loc 3 374 18 is_stmt 0 view .LVU1808
 6197 0240 D100D1E0 		ldrsb	r0, [r1], #1
 6198              	.LVL444:
 374:Include/benchmark.h ****         {
 6199              		.loc 3 374 11 view .LVU1809
 6200 0244 000050E3 		cmp	r0, #0
 6201 0248 0500000A 		beq	.L482
 6202              	.L483:
 6203              	.LBB1082:
 6204              	.LBB1079:
 222:Include/benchmark.h ****     return 0;
 6205              		.loc 3 222 5 is_stmt 1 discriminator 1 view .LVU1810
 6206 024c 2C3092E5 		ldr	r3, [r2, #44]
 6207 0250 080013E3 		tst	r3, #8
 6208 0254 FCFFFF0A 		beq	.L483
 222:Include/benchmark.h ****     return 0;
 6209              		.loc 3 222 5 discriminator 2 view .LVU1811
 6210              	.LBE1079:
 6211              	.LBE1082:
 372:Include/benchmark.h ****     {
 6212              		.loc 3 372 23 is_stmt 0 discriminator 1 view .LVU1812
 6213 0258 01005CE1 		cmp	ip, r1
 6214              	.LBB1083:
 6215              	.LBB1080:
 222:Include/benchmark.h ****     return 0;
 6216              		.loc 3 222 5 discriminator 2 view .LVU1813
 6217 025c 300082E5 		str	r0, [r2, #48]
 222:Include/benchmark.h ****     return 0;
 6218              		.loc 3 222 5 is_stmt 1 view .LVU1814
 223:Include/benchmark.h **** }
 6219              		.loc 3 223 5 view .LVU1815
 6220              	.LBE1080:
ARM GAS  C:\Users\even\AppData\Local\Temp\ccu0RqlP.s 			page 169


 6221              	.LBE1083:
 372:Include/benchmark.h ****     {
 6222              		.loc 3 372 33 discriminator 2 view .LVU1816
 6223              	.LVL445:
 372:Include/benchmark.h ****     {
 6224              		.loc 3 372 23 discriminator 1 view .LVU1817
 6225 0260 F6FFFF1A 		bne	.L484
 6226              	.LVL446:
 6227              	.L482:
 387:Include/benchmark.h **** }
 6228              		.loc 3 387 5 view .LVU1818
 387:Include/benchmark.h **** }
 6229              		.loc 3 387 5 is_stmt 0 view .LVU1819
 6230              	.LBE1085:
 6231              	.LBE1087:
 767:Source/rme_benchmark.c **** 	USR_DBG_I(end-start);
 6232              		.loc 1 767 2 is_stmt 1 view .LVU1820
 6233              		.loc 1 767 15 is_stmt 0 view .LVU1821
 6234 0264 000094E5 		ldr	r0, [r4]
 6235 0268 003095E5 		ldr	r3, [r5]
 6236              		.loc 1 767 2 view .LVU1822
 6237 026c 030040E0 		sub	r0, r0, r3
 6238 0270 FEFFFFEB 		bl	USR_DBG_I
 6239              	.LVL447:
 768:Source/rme_benchmark.c **** 	USR_DBG_S("\r\n inv 10000 time avg = ");
 6240              		.loc 1 768 2 is_stmt 1 view .LVU1823
 6241              	.LBB1088:
 6242              	.LBI1088:
 368:Include/benchmark.h **** {
 6243              		.loc 3 368 7 view .LVU1824
 6244              	.LBB1089:
 370:Include/benchmark.h **** 
 6245              		.loc 3 370 5 view .LVU1825
 372:Include/benchmark.h ****     {
 6246              		.loc 3 372 5 view .LVU1826
 372:Include/benchmark.h ****     {
 6247              		.loc 3 372 23 discriminator 1 view .LVU1827
 6248 0274 001000E3 		movw	r1, #:lower16:.LC33
 6249              	.LBB1090:
 6250              	.LBB1091:
 222:Include/benchmark.h ****     return 0;
 6251              		.loc 3 222 5 is_stmt 0 discriminator 1 view .LVU1828
 6252 0278 012AA0E3 		mov	r2, #4096
 6253 027c 001040E3 		movt	r1, #:upper16:.LC33
 6254 0280 00204EE3 		movt	r2, 57344
 6255 0284 FFC081E2 		add	ip, r1, #255
 6256              	.LVL448:
 6257              	.L487:
 222:Include/benchmark.h ****     return 0;
 6258              		.loc 3 222 5 discriminator 1 view .LVU1829
 6259              	.LBE1091:
 6260              	.LBE1090:
 374:Include/benchmark.h ****         {
 6261              		.loc 3 374 9 is_stmt 1 view .LVU1830
 374:Include/benchmark.h ****         {
 6262              		.loc 3 374 18 is_stmt 0 view .LVU1831
 6263 0288 D100D1E0 		ldrsb	r0, [r1], #1
ARM GAS  C:\Users\even\AppData\Local\Temp\ccu0RqlP.s 			page 170


 6264              	.LVL449:
 374:Include/benchmark.h ****         {
 6265              		.loc 3 374 11 view .LVU1832
 6266 028c 000050E3 		cmp	r0, #0
 6267 0290 0500000A 		beq	.L485
 6268              	.L486:
 6269              	.LBB1094:
 6270              	.LBB1092:
 222:Include/benchmark.h ****     return 0;
 6271              		.loc 3 222 5 is_stmt 1 discriminator 1 view .LVU1833
 6272 0294 2C3092E5 		ldr	r3, [r2, #44]
 6273 0298 080013E3 		tst	r3, #8
 6274 029c FCFFFF0A 		beq	.L486
 222:Include/benchmark.h ****     return 0;
 6275              		.loc 3 222 5 discriminator 2 view .LVU1834
 6276              	.LBE1092:
 6277              	.LBE1094:
 372:Include/benchmark.h ****     {
 6278              		.loc 3 372 23 is_stmt 0 discriminator 1 view .LVU1835
 6279 02a0 0C0051E1 		cmp	r1, ip
 6280              	.LBB1095:
 6281              	.LBB1093:
 222:Include/benchmark.h ****     return 0;
 6282              		.loc 3 222 5 discriminator 2 view .LVU1836
 6283 02a4 300082E5 		str	r0, [r2, #48]
 222:Include/benchmark.h ****     return 0;
 6284              		.loc 3 222 5 is_stmt 1 view .LVU1837
 223:Include/benchmark.h **** }
 6285              		.loc 3 223 5 view .LVU1838
 6286              	.LBE1093:
 6287              	.LBE1095:
 372:Include/benchmark.h ****     {
 6288              		.loc 3 372 33 discriminator 2 view .LVU1839
 6289              	.LVL450:
 372:Include/benchmark.h ****     {
 6290              		.loc 3 372 23 discriminator 1 view .LVU1840
 6291 02a8 F6FFFF1A 		bne	.L487
 6292              	.LVL451:
 6293              	.L485:
 387:Include/benchmark.h **** }
 6294              		.loc 3 387 5 view .LVU1841
 387:Include/benchmark.h **** }
 6295              		.loc 3 387 5 is_stmt 0 view .LVU1842
 6296              	.LBE1089:
 6297              	.LBE1088:
 769:Source/rme_benchmark.c **** 	USR_DBG_I((end-start)/10000);
 6298              		.loc 1 769 2 is_stmt 1 view .LVU1843
 6299              		.loc 1 769 16 is_stmt 0 view .LVU1844
 6300 02ac 000094E5 		ldr	r0, [r4]
 6301              		.loc 1 769 23 view .LVU1845
 6302 02b0 593701E3 		movw	r3, #5977
 6303              		.loc 1 769 16 view .LVU1846
 6304 02b4 002095E5 		ldr	r2, [r5]
 6305              		.loc 1 769 23 view .LVU1847
 6306 02b8 B7314DE3 		movt	r3, 53687
 6307              		.loc 1 769 16 view .LVU1848
 6308 02bc 020040E0 		sub	r0, r0, r2
ARM GAS  C:\Users\even\AppData\Local\Temp\ccu0RqlP.s 			page 171


 6309              		.loc 1 769 23 view .LVU1849
 6310 02c0 933080E0 		umull	r3, r0, r3, r0
 6311              		.loc 1 769 2 view .LVU1850
 6312 02c4 A006A0E1 		lsr	r0, r0, #13
 6313 02c8 FEFFFFEB 		bl	USR_DBG_I
 6314              	.LVL452:
 6315              	.L488:
 770:Source/rme_benchmark.c **** 	while(1);
 6316              		.loc 1 770 2 is_stmt 1 view .LVU1851
 6317              		.loc 1 770 7 view .LVU1852
 6318              		.loc 1 770 2 view .LVU1853
 6319              		.loc 1 770 7 view .LVU1854
 6320 02cc FEFFFFEA 		b	.L488
 6321              	.L531:
 6322              		.align	2
 6323              	.L530:
 6324 02d0 401F0000 		.word	RME_Stack3+8000
 6325              		.cfi_endproc
 6326              	.LFE37:
 6328              		.section	.text.RME_Benchmark,"ax",%progbits
 6329              		.align	2
 6330              		.global	RME_Benchmark
 6331              		.syntax unified
 6332              		.arm
 6334              	RME_Benchmark:
 6335              	.LFB38:
 771:Source/rme_benchmark.c **** }
 772:Source/rme_benchmark.c **** 
 773:Source/rme_benchmark.c **** /* Function:RME_Benchmark *****************************************************
 774:Source/rme_benchmark.c **** Description : The benchmark entry, also the init thread.
 775:Source/rme_benchmark.c **** Input       : None.
 776:Source/rme_benchmark.c **** Output      : None.
 777:Source/rme_benchmark.c **** Return      : None.
 778:Source/rme_benchmark.c **** ******************************************************************************/
 779:Source/rme_benchmark.c **** void RME_Benchmark(void)
 780:Source/rme_benchmark.c **** {
 6336              		.loc 1 780 1 view -0
 6337              		.cfi_startproc
 6338              		@ Volatile: function does not return.
 6339              		@ args = 0, pretend = 0, frame = 0
 6340              		@ frame_needed = 0, uses_anonymous_args = 0
 781:Source/rme_benchmark.c **** 	Cur_addr=RME_BOOT_BENCH_KOM_FRONTIER;
 6341              		.loc 1 781 2 view .LVU1856
 6342              		.loc 1 781 10 is_stmt 0 view .LVU1857
 6343 0000 003000E3 		movw	r3, #:lower16:Cur_addr
 6344 0004 0229A0E3 		mov	r2, #32768
 6345 0008 003040E3 		movt	r3, #:upper16:Cur_addr
 780:Source/rme_benchmark.c **** 	Cur_addr=RME_BOOT_BENCH_KOM_FRONTIER;
 6346              		.loc 1 780 1 view .LVU1858
 6347 000c 10402DE9 		push	{r4, lr}
 6348              		.cfi_def_cfa_offset 8
 6349              		.cfi_offset 4, -8
 6350              		.cfi_offset 14, -4
 6351              		.loc 1 781 10 view .LVU1859
 6352 0010 002083E5 		str	r2, [r3]
 782:Source/rme_benchmark.c ****     //USR_DBG_S("\r\nhello this is User level!");
 783:Source/rme_benchmark.c **** 
ARM GAS  C:\Users\even\AppData\Local\Temp\ccu0RqlP.s 			page 172


 784:Source/rme_benchmark.c ****     //RME_Same_Prc_Thd_Sig_Testinit();
 785:Source/rme_benchmark.c ****     RME_Diff_Prc_Thd_Sig_Testinit();
 6353              		.loc 1 785 5 is_stmt 1 view .LVU1860
 6354 0014 FEFFFFEB 		bl	RME_Diff_Prc_Thd_Sig_Testinit
 6355              	.LVL453:
 6356              		.cfi_endproc
 6357              	.LFE38:
 6359              		.global	end
 6360              		.section	.bss.end,"aw",%nobits
 6361              		.align	2
 6364              	end:
 6365 0000 00000000 		.space	4
 6366              		.global	start
 6367              		.section	.bss.start,"aw",%nobits
 6368              		.align	2
 6371              	start:
 6372 0000 00000000 		.space	4
 6373              		.global	Cur_addr
 6374              		.section	.bss.Cur_addr,"aw",%nobits
 6375              		.align	2
 6378              	Cur_addr:
 6379 0000 00000000 		.space	4
 6380              		.global	RME_Bench_Buf
 6381              		.section	.bss.RME_Bench_Buf,"aw",%nobits
 6382              		.align	3
 6385              	RME_Bench_Buf:
 6386 0000 00000000 		.space	1024
 6386      00000000 
 6386      00000000 
 6386      00000000 
 6386      00000000 
 6387              		.global	Time
 6388              		.section	.bss.Time,"aw",%nobits
 6389              		.align	3
 6392              	Time:
 6393 0000 00000000 		.space	20000
 6393      00000000 
 6393      00000000 
 6393      00000000 
 6393      00000000 
 6394              		.global	RME_Stack5
 6395              		.section	.bss.RME_Stack5,"aw",%nobits
 6396              		.align	3
 6399              	RME_Stack5:
 6400 0000 00000000 		.space	8192
 6400      00000000 
 6400      00000000 
 6400      00000000 
 6400      00000000 
 6401              		.global	RME_Stack4
 6402              		.section	.bss.RME_Stack4,"aw",%nobits
 6403              		.align	3
 6406              	RME_Stack4:
 6407 0000 00000000 		.space	8192
 6407      00000000 
 6407      00000000 
 6407      00000000 
ARM GAS  C:\Users\even\AppData\Local\Temp\ccu0RqlP.s 			page 173


 6407      00000000 
 6408              		.global	RME_Stack3
 6409              		.section	.bss.RME_Stack3,"aw",%nobits
 6410              		.align	3
 6413              	RME_Stack3:
 6414 0000 00000000 		.space	8192
 6414      00000000 
 6414      00000000 
 6414      00000000 
 6414      00000000 
 6415              		.global	RME_Stack2
 6416              		.section	.bss.RME_Stack2,"aw",%nobits
 6417              		.align	3
 6420              	RME_Stack2:
 6421 0000 00000000 		.space	8192
 6421      00000000 
 6421      00000000 
 6421      00000000 
 6421      00000000 
 6422              		.global	RME_Stack1
 6423              		.section	.bss.RME_Stack1,"aw",%nobits
 6424              		.align	3
 6427              	RME_Stack1:
 6428 0000 00000000 		.space	8192
 6428      00000000 
 6428      00000000 
 6428      00000000 
 6428      00000000 
 6429              		.text
 6430              	.Letext0:
ARM GAS  C:\Users\even\AppData\Local\Temp\ccu0RqlP.s 			page 174


DEFINED SYMBOLS
                            *ABS*:00000000 rme_benchmark.c
C:\Users\even\AppData\Local\Temp\ccu0RqlP.s:21     .text.RME_Same_Prc_Thd_Switch_Test_Thd:00000000 $a
C:\Users\even\AppData\Local\Temp\ccu0RqlP.s:26     .text.RME_Same_Prc_Thd_Switch_Test_Thd:00000000 RME_Same_Prc_Thd_Switch_Test_Thd
C:\Users\even\AppData\Local\Temp\ccu0RqlP.s:66     .text.RME_Diff_Prc_Thd_Switch_Test_Thd:00000000 $a
C:\Users\even\AppData\Local\Temp\ccu0RqlP.s:71     .text.RME_Diff_Prc_Thd_Switch_Test_Thd:00000000 RME_Diff_Prc_Thd_Switch_Test_Thd
C:\Users\even\AppData\Local\Temp\ccu0RqlP.s:87     .rodata.RME_Same_Prc_Thd_Sig_Test_Thd_send.str1.4:00000000 $d
C:\Users\even\AppData\Local\Temp\ccu0RqlP.s:88     .rodata.RME_Same_Prc_Thd_Sig_Test_Thd_send.str1.4:00000000 .LC0
C:\Users\even\AppData\Local\Temp\ccu0RqlP.s:91     .rodata.RME_Same_Prc_Thd_Sig_Test_Thd_send.str1.4:00000018 .LC1
C:\Users\even\AppData\Local\Temp\ccu0RqlP.s:94     .text.RME_Same_Prc_Thd_Sig_Test_Thd_send:00000000 $a
C:\Users\even\AppData\Local\Temp\ccu0RqlP.s:99     .text.RME_Same_Prc_Thd_Sig_Test_Thd_send:00000000 RME_Same_Prc_Thd_Sig_Test_Thd_send
C:\Users\even\AppData\Local\Temp\ccu0RqlP.s:6371   .bss.start:00000000 start
C:\Users\even\AppData\Local\Temp\ccu0RqlP.s:308    .text.RME_Same_Prc_Thd_Sig_Test_Thd_send:000000a4 $d
C:\Users\even\AppData\Local\Temp\ccu0RqlP.s:315    .rodata.RME_Diff_Prc_Thd_Sig_Test_Thd_send.str1.4:00000000 $d
C:\Users\even\AppData\Local\Temp\ccu0RqlP.s:316    .rodata.RME_Diff_Prc_Thd_Sig_Test_Thd_send.str1.4:00000000 .LC2
C:\Users\even\AppData\Local\Temp\ccu0RqlP.s:319    .text.RME_Diff_Prc_Thd_Sig_Test_Thd_send:00000000 $a
C:\Users\even\AppData\Local\Temp\ccu0RqlP.s:324    .text.RME_Diff_Prc_Thd_Sig_Test_Thd_send:00000000 RME_Diff_Prc_Thd_Sig_Test_Thd_send
C:\Users\even\AppData\Local\Temp\ccu0RqlP.s:532    .text.RME_Diff_Prc_Thd_Sig_Test_Thd_send:000000a4 $d
C:\Users\even\AppData\Local\Temp\ccu0RqlP.s:539    .text.RME_Inv_test_fuction:00000000 $a
C:\Users\even\AppData\Local\Temp\ccu0RqlP.s:544    .text.RME_Inv_test_fuction:00000000 RME_Inv_test_fuction
C:\Users\even\AppData\Local\Temp\ccu0RqlP.s:560    .text.__USR_Putchar:00000000 $a
C:\Users\even\AppData\Local\Temp\ccu0RqlP.s:565    .text.__USR_Putchar:00000000 __USR_Putchar
C:\Users\even\AppData\Local\Temp\ccu0RqlP.s:596    .text.USR_DBG_I:00000000 $a
C:\Users\even\AppData\Local\Temp\ccu0RqlP.s:601    .text.USR_DBG_I:00000000 USR_DBG_I
C:\Users\even\AppData\Local\Temp\ccu0RqlP.s:852    .rodata.RME_Same_Prc_Thd_Sig_Test_Thd_recv.str1.4:00000000 $d
C:\Users\even\AppData\Local\Temp\ccu0RqlP.s:853    .rodata.RME_Same_Prc_Thd_Sig_Test_Thd_recv.str1.4:00000000 .LC3
C:\Users\even\AppData\Local\Temp\ccu0RqlP.s:856    .rodata.RME_Same_Prc_Thd_Sig_Test_Thd_recv.str1.4:0000001c .LC4
C:\Users\even\AppData\Local\Temp\ccu0RqlP.s:859    .rodata.RME_Same_Prc_Thd_Sig_Test_Thd_recv.str1.4:00000038 .LC5
C:\Users\even\AppData\Local\Temp\ccu0RqlP.s:862    .rodata.RME_Same_Prc_Thd_Sig_Test_Thd_recv.str1.4:00000044 .LC6
C:\Users\even\AppData\Local\Temp\ccu0RqlP.s:865    .text.RME_Same_Prc_Thd_Sig_Test_Thd_recv:00000000 $a
C:\Users\even\AppData\Local\Temp\ccu0RqlP.s:870    .text.RME_Same_Prc_Thd_Sig_Test_Thd_recv:00000000 RME_Same_Prc_Thd_Sig_Test_Thd_recv
C:\Users\even\AppData\Local\Temp\ccu0RqlP.s:6364   .bss.end:00000000 end
C:\Users\even\AppData\Local\Temp\ccu0RqlP.s:1185   .text.RME_Same_Prc_Thd_Sig_Test_Thd_recv:00000134 $d
C:\Users\even\AppData\Local\Temp\ccu0RqlP.s:1191   .rodata.RME_Diff_Prc_Thd_Sig_Test_Thd_recv.str1.4:00000000 $d
C:\Users\even\AppData\Local\Temp\ccu0RqlP.s:1192   .rodata.RME_Diff_Prc_Thd_Sig_Test_Thd_recv.str1.4:00000000 .LC7
C:\Users\even\AppData\Local\Temp\ccu0RqlP.s:1195   .rodata.RME_Diff_Prc_Thd_Sig_Test_Thd_recv.str1.4:00000020 .LC8
C:\Users\even\AppData\Local\Temp\ccu0RqlP.s:1198   .text.RME_Diff_Prc_Thd_Sig_Test_Thd_recv:00000000 $a
C:\Users\even\AppData\Local\Temp\ccu0RqlP.s:1203   .text.RME_Diff_Prc_Thd_Sig_Test_Thd_recv:00000000 RME_Diff_Prc_Thd_Sig_Test_Thd_recv
C:\Users\even\AppData\Local\Temp\ccu0RqlP.s:1518   .text.RME_Diff_Prc_Thd_Sig_Test_Thd_recv:00000134 $d
C:\Users\even\AppData\Local\Temp\ccu0RqlP.s:1524   .text.USR_DBG_H:00000000 $a
C:\Users\even\AppData\Local\Temp\ccu0RqlP.s:1529   .text.USR_DBG_H:00000000 USR_DBG_H
C:\Users\even\AppData\Local\Temp\ccu0RqlP.s:1709   .text.USR_DBG_S:00000000 $a
C:\Users\even\AppData\Local\Temp\ccu0RqlP.s:1714   .text.USR_DBG_S:00000000 USR_DBG_S
C:\Users\even\AppData\Local\Temp\ccu0RqlP.s:1774   .text.get_time:00000000 $a
C:\Users\even\AppData\Local\Temp\ccu0RqlP.s:1779   .text.get_time:00000000 get_time
C:\Users\even\AppData\Local\Temp\ccu0RqlP.s:1800   .text.RME_Thd_Crt:00000000 $a
C:\Users\even\AppData\Local\Temp\ccu0RqlP.s:1805   .text.RME_Thd_Crt:00000000 RME_Thd_Crt
C:\Users\even\AppData\Local\Temp\ccu0RqlP.s:1848   .text.RME_Thd_Exec_Set:00000000 $a
C:\Users\even\AppData\Local\Temp\ccu0RqlP.s:1853   .text.RME_Thd_Exec_Set:00000000 RME_Thd_Exec_Set
C:\Users\even\AppData\Local\Temp\ccu0RqlP.s:1873   .text.RME_Thd_Time_Xfer:00000000 $a
C:\Users\even\AppData\Local\Temp\ccu0RqlP.s:1878   .text.RME_Thd_Time_Xfer:00000000 RME_Thd_Time_Xfer
C:\Users\even\AppData\Local\Temp\ccu0RqlP.s:1907   .text.RME_Thd_Sched_Bind:00000000 $a
C:\Users\even\AppData\Local\Temp\ccu0RqlP.s:1912   .text.RME_Thd_Sched_Bind:00000000 RME_Thd_Sched_Bind
C:\Users\even\AppData\Local\Temp\ccu0RqlP.s:1951   .text.RME_Thd_Swt:00000000 $a
C:\Users\even\AppData\Local\Temp\ccu0RqlP.s:1956   .text.RME_Thd_Swt:00000000 RME_Thd_Swt
C:\Users\even\AppData\Local\Temp\ccu0RqlP.s:1982   .text.RME_Sig_Crt:00000000 $a
C:\Users\even\AppData\Local\Temp\ccu0RqlP.s:1987   .text.RME_Sig_Crt:00000000 RME_Sig_Crt
ARM GAS  C:\Users\even\AppData\Local\Temp\ccu0RqlP.s 			page 175


C:\Users\even\AppData\Local\Temp\ccu0RqlP.s:2009   .text.RME_Sig_Del:00000000 $a
C:\Users\even\AppData\Local\Temp\ccu0RqlP.s:2014   .text.RME_Sig_Del:00000000 RME_Sig_Del
C:\Users\even\AppData\Local\Temp\ccu0RqlP.s:2036   .text.RME_Sig_Snd:00000000 $a
C:\Users\even\AppData\Local\Temp\ccu0RqlP.s:2041   .text.RME_Sig_Snd:00000000 RME_Sig_Snd
C:\Users\even\AppData\Local\Temp\ccu0RqlP.s:2065   .text.RME_Sig_Rcv:00000000 $a
C:\Users\even\AppData\Local\Temp\ccu0RqlP.s:2070   .text.RME_Sig_Rcv:00000000 RME_Sig_Rcv
C:\Users\even\AppData\Local\Temp\ccu0RqlP.s:2096   .text.RME_Prc_Crt:00000000 $a
C:\Users\even\AppData\Local\Temp\ccu0RqlP.s:2101   .text.RME_Prc_Crt:00000000 RME_Prc_Crt
C:\Users\even\AppData\Local\Temp\ccu0RqlP.s:2121   .text.RME_Prc_Del:00000000 $a
C:\Users\even\AppData\Local\Temp\ccu0RqlP.s:2126   .text.RME_Prc_Del:00000000 RME_Prc_Del
C:\Users\even\AppData\Local\Temp\ccu0RqlP.s:2148   .text.RME_Prc_Cpt:00000000 $a
C:\Users\even\AppData\Local\Temp\ccu0RqlP.s:2153   .text.RME_Prc_Cpt:00000000 RME_Prc_Cpt
C:\Users\even\AppData\Local\Temp\ccu0RqlP.s:2179   .text.RME_Prc_Pgt:00000000 $a
C:\Users\even\AppData\Local\Temp\ccu0RqlP.s:2184   .text.RME_Prc_Pgt:00000000 RME_Prc_Pgt
C:\Users\even\AppData\Local\Temp\ccu0RqlP.s:2210   .text.RME_Pgt_Crt:00000000 $a
C:\Users\even\AppData\Local\Temp\ccu0RqlP.s:2215   .text.RME_Pgt_Crt:00000000 RME_Pgt_Crt
C:\Users\even\AppData\Local\Temp\ccu0RqlP.s:2263   .text.RME_Pgt_Del:00000000 $a
C:\Users\even\AppData\Local\Temp\ccu0RqlP.s:2268   .text.RME_Pgt_Del:00000000 RME_Pgt_Del
C:\Users\even\AppData\Local\Temp\ccu0RqlP.s:2290   .text.RME_Pgt_Add:00000000 $a
C:\Users\even\AppData\Local\Temp\ccu0RqlP.s:2295   .text.RME_Pgt_Add:00000000 RME_Pgt_Add
C:\Users\even\AppData\Local\Temp\ccu0RqlP.s:2333   .text.RME_Inv_Crt:00000000 $a
C:\Users\even\AppData\Local\Temp\ccu0RqlP.s:2338   .text.RME_Inv_Crt:00000000 RME_Inv_Crt
C:\Users\even\AppData\Local\Temp\ccu0RqlP.s:2371   .text.RME_Inv_Set:00000000 $a
C:\Users\even\AppData\Local\Temp\ccu0RqlP.s:2376   .text.RME_Inv_Set:00000000 RME_Inv_Set
C:\Users\even\AppData\Local\Temp\ccu0RqlP.s:2417   .text.RME_Thd_Create:00000000 $a
C:\Users\even\AppData\Local\Temp\ccu0RqlP.s:2422   .text.RME_Thd_Create:00000000 RME_Thd_Create
C:\Users\even\AppData\Local\Temp\ccu0RqlP.s:2580   .rodata.RME_Same_Prc_Thd_Sig_Test_Thd_main_nouse.str1.4:00000000 $d
C:\Users\even\AppData\Local\Temp\ccu0RqlP.s:2581   .rodata.RME_Same_Prc_Thd_Sig_Test_Thd_main_nouse.str1.4:00000000 .LC9
C:\Users\even\AppData\Local\Temp\ccu0RqlP.s:2584   .rodata.RME_Same_Prc_Thd_Sig_Test_Thd_main_nouse.str1.4:00000004 .LC10
C:\Users\even\AppData\Local\Temp\ccu0RqlP.s:2587   .rodata.RME_Same_Prc_Thd_Sig_Test_Thd_main_nouse.str1.4:00000018 .LC11
C:\Users\even\AppData\Local\Temp\ccu0RqlP.s:2590   .rodata.RME_Same_Prc_Thd_Sig_Test_Thd_main_nouse.str1.4:00000044 .LC12
C:\Users\even\AppData\Local\Temp\ccu0RqlP.s:2593   .rodata.RME_Same_Prc_Thd_Sig_Test_Thd_main_nouse.str1.4:00000058 .LC13
C:\Users\even\AppData\Local\Temp\ccu0RqlP.s:2596   .text.RME_Same_Prc_Thd_Sig_Test_Thd_main_nouse:00000000 $a
C:\Users\even\AppData\Local\Temp\ccu0RqlP.s:2601   .text.RME_Same_Prc_Thd_Sig_Test_Thd_main_nouse:00000000 RME_Same_Prc_Thd_Sig_Test_Thd_main_nouse
C:\Users\even\AppData\Local\Temp\ccu0RqlP.s:2927   .rodata.RME_Same_Prc_Thd_Sig_Testinit.str1.4:00000000 $d
C:\Users\even\AppData\Local\Temp\ccu0RqlP.s:2928   .rodata.RME_Same_Prc_Thd_Sig_Testinit.str1.4:00000000 .LC14
C:\Users\even\AppData\Local\Temp\ccu0RqlP.s:2931   .text.RME_Same_Prc_Thd_Sig_Testinit:00000000 $a
C:\Users\even\AppData\Local\Temp\ccu0RqlP.s:2936   .text.RME_Same_Prc_Thd_Sig_Testinit:00000000 RME_Same_Prc_Thd_Sig_Testinit
C:\Users\even\AppData\Local\Temp\ccu0RqlP.s:6378   .bss.Cur_addr:00000000 Cur_addr
C:\Users\even\AppData\Local\Temp\ccu0RqlP.s:3253   .text.RME_Same_Prc_Thd_Sig_Testinit:0000014c $d
C:\Users\even\AppData\Local\Temp\ccu0RqlP.s:6413   .bss.RME_Stack3:00000000 RME_Stack3
C:\Users\even\AppData\Local\Temp\ccu0RqlP.s:6420   .bss.RME_Stack2:00000000 RME_Stack2
C:\Users\even\AppData\Local\Temp\ccu0RqlP.s:3259   .rodata.RME_Diff_Prc_Thd_Sig_Testinit.str1.4:00000000 $d
C:\Users\even\AppData\Local\Temp\ccu0RqlP.s:3260   .rodata.RME_Diff_Prc_Thd_Sig_Testinit.str1.4:00000000 .LC15
C:\Users\even\AppData\Local\Temp\ccu0RqlP.s:3263   .rodata.RME_Diff_Prc_Thd_Sig_Testinit.str1.4:00000010 .LC16
C:\Users\even\AppData\Local\Temp\ccu0RqlP.s:3266   .rodata.RME_Diff_Prc_Thd_Sig_Testinit.str1.4:00000034 .LC17
C:\Users\even\AppData\Local\Temp\ccu0RqlP.s:3269   .rodata.RME_Diff_Prc_Thd_Sig_Testinit.str1.4:00000054 .LC18
C:\Users\even\AppData\Local\Temp\ccu0RqlP.s:3272   .rodata.RME_Diff_Prc_Thd_Sig_Testinit.str1.4:00000058 .LC19
C:\Users\even\AppData\Local\Temp\ccu0RqlP.s:3275   .rodata.RME_Diff_Prc_Thd_Sig_Testinit.str1.4:0000007c .LC20
C:\Users\even\AppData\Local\Temp\ccu0RqlP.s:3278   .rodata.RME_Diff_Prc_Thd_Sig_Testinit.str1.4:0000009c .LC21
C:\Users\even\AppData\Local\Temp\ccu0RqlP.s:3281   .rodata.RME_Diff_Prc_Thd_Sig_Testinit.str1.4:000000bc .LC22
C:\Users\even\AppData\Local\Temp\ccu0RqlP.s:3284   .rodata.RME_Diff_Prc_Thd_Sig_Testinit.str1.4:000000e0 .LC23
C:\Users\even\AppData\Local\Temp\ccu0RqlP.s:3287   .text.RME_Diff_Prc_Thd_Sig_Testinit:00000000 $a
C:\Users\even\AppData\Local\Temp\ccu0RqlP.s:3292   .text.RME_Diff_Prc_Thd_Sig_Testinit:00000000 RME_Diff_Prc_Thd_Sig_Testinit
C:\Users\even\AppData\Local\Temp\ccu0RqlP.s:4550   .text.RME_Diff_Prc_Thd_Sig_Testinit:00000520 $d
C:\Users\even\AppData\Local\Temp\ccu0RqlP.s:4556   .rodata.RME_Same_Prc_Thd_Switch_Test.str1.4:00000000 $d
C:\Users\even\AppData\Local\Temp\ccu0RqlP.s:4557   .rodata.RME_Same_Prc_Thd_Switch_Test.str1.4:00000000 .LC24
ARM GAS  C:\Users\even\AppData\Local\Temp\ccu0RqlP.s 			page 176


C:\Users\even\AppData\Local\Temp\ccu0RqlP.s:4560   .rodata.RME_Same_Prc_Thd_Switch_Test.str1.4:00000020 .LC25
C:\Users\even\AppData\Local\Temp\ccu0RqlP.s:4563   .text.RME_Same_Prc_Thd_Switch_Test:00000000 $a
C:\Users\even\AppData\Local\Temp\ccu0RqlP.s:4568   .text.RME_Same_Prc_Thd_Switch_Test:00000000 RME_Same_Prc_Thd_Switch_Test
C:\Users\even\AppData\Local\Temp\ccu0RqlP.s:4923   .text.RME_Same_Prc_Thd_Switch_Test:00000160 $d
C:\Users\even\AppData\Local\Temp\ccu0RqlP.s:6427   .bss.RME_Stack1:00000000 RME_Stack1
C:\Users\even\AppData\Local\Temp\ccu0RqlP.s:4928   .text.RME_Diff_Prc_Thd_Switch_Test_noused:00000000 $a
C:\Users\even\AppData\Local\Temp\ccu0RqlP.s:4933   .text.RME_Diff_Prc_Thd_Switch_Test_noused:00000000 RME_Diff_Prc_Thd_Switch_Test_noused
C:\Users\even\AppData\Local\Temp\ccu0RqlP.s:4978   .text.RME_Diff_Prc_Thd_Switch_Test_noused:00000034 $d
C:\Users\even\AppData\Local\Temp\ccu0RqlP.s:4983   .rodata.RME_Diff_Prc_Switch_Test.str1.4:00000000 $d
C:\Users\even\AppData\Local\Temp\ccu0RqlP.s:4984   .rodata.RME_Diff_Prc_Switch_Test.str1.4:00000000 .LC26
C:\Users\even\AppData\Local\Temp\ccu0RqlP.s:4987   .rodata.RME_Diff_Prc_Switch_Test.str1.4:00000024 .LC27
C:\Users\even\AppData\Local\Temp\ccu0RqlP.s:4990   .rodata.RME_Diff_Prc_Switch_Test.str1.4:0000004c .LC28
C:\Users\even\AppData\Local\Temp\ccu0RqlP.s:4993   .text.RME_Diff_Prc_Switch_Test:00000000 $a
C:\Users\even\AppData\Local\Temp\ccu0RqlP.s:4998   .text.RME_Diff_Prc_Switch_Test:00000000 RME_Diff_Prc_Switch_Test
C:\Users\even\AppData\Local\Temp\ccu0RqlP.s:5510   .text.RME_Diff_Prc_Switch_Test:00000224 $d
C:\Users\even\AppData\Local\Temp\ccu0RqlP.s:5515   .rodata.RME_Diff_Inv_test.str1.4:00000000 $d
C:\Users\even\AppData\Local\Temp\ccu0RqlP.s:5516   .rodata.RME_Diff_Inv_test.str1.4:00000000 .LC29
C:\Users\even\AppData\Local\Temp\ccu0RqlP.s:5519   .rodata.RME_Diff_Inv_test.str1.4:00000028 .LC30
C:\Users\even\AppData\Local\Temp\ccu0RqlP.s:5522   .rodata.RME_Diff_Inv_test.str1.4:0000004c .LC31
C:\Users\even\AppData\Local\Temp\ccu0RqlP.s:5525   .rodata.RME_Diff_Inv_test.str1.4:00000070 .LC32
C:\Users\even\AppData\Local\Temp\ccu0RqlP.s:5528   .rodata.RME_Diff_Inv_test.str1.4:00000088 .LC33
C:\Users\even\AppData\Local\Temp\ccu0RqlP.s:5531   .text.RME_Diff_Inv_test:00000000 $a
C:\Users\even\AppData\Local\Temp\ccu0RqlP.s:5536   .text.RME_Diff_Inv_test:00000000 RME_Diff_Inv_test
C:\Users\even\AppData\Local\Temp\ccu0RqlP.s:6324   .text.RME_Diff_Inv_test:000002d0 $d
C:\Users\even\AppData\Local\Temp\ccu0RqlP.s:6329   .text.RME_Benchmark:00000000 $a
C:\Users\even\AppData\Local\Temp\ccu0RqlP.s:6334   .text.RME_Benchmark:00000000 RME_Benchmark
C:\Users\even\AppData\Local\Temp\ccu0RqlP.s:6361   .bss.end:00000000 $d
C:\Users\even\AppData\Local\Temp\ccu0RqlP.s:6368   .bss.start:00000000 $d
C:\Users\even\AppData\Local\Temp\ccu0RqlP.s:6375   .bss.Cur_addr:00000000 $d
C:\Users\even\AppData\Local\Temp\ccu0RqlP.s:6385   .bss.RME_Bench_Buf:00000000 RME_Bench_Buf
C:\Users\even\AppData\Local\Temp\ccu0RqlP.s:6382   .bss.RME_Bench_Buf:00000000 $d
C:\Users\even\AppData\Local\Temp\ccu0RqlP.s:6392   .bss.Time:00000000 Time
C:\Users\even\AppData\Local\Temp\ccu0RqlP.s:6389   .bss.Time:00000000 $d
C:\Users\even\AppData\Local\Temp\ccu0RqlP.s:6399   .bss.RME_Stack5:00000000 RME_Stack5
C:\Users\even\AppData\Local\Temp\ccu0RqlP.s:6396   .bss.RME_Stack5:00000000 $d
C:\Users\even\AppData\Local\Temp\ccu0RqlP.s:6406   .bss.RME_Stack4:00000000 RME_Stack4
C:\Users\even\AppData\Local\Temp\ccu0RqlP.s:6403   .bss.RME_Stack4:00000000 $d
C:\Users\even\AppData\Local\Temp\ccu0RqlP.s:6410   .bss.RME_Stack3:00000000 $d
C:\Users\even\AppData\Local\Temp\ccu0RqlP.s:6417   .bss.RME_Stack2:00000000 $d
C:\Users\even\AppData\Local\Temp\ccu0RqlP.s:6424   .bss.RME_Stack1:00000000 $d
                           .group:00000000 wm4.0.353890f441889b1cb797c5c923efd322
                           .group:00000000 wm4.rme.h.11.105c42759f88404be372052d8d99e5e6
                           .group:00000000 wm4.benchmark.h.4.0d1f7c3613d002c450c90010c951991c

UNDEFINED SYMBOLS
RME_Svc
RME_Inv_Ret
__aeabi_idivmod
RME_Thd_Stub
_RME_Stack_Init
RME_Inv_Act
